Component: ARM Compiler 5.06 update 6 (build 750) Tool: armlink [4d35ed]

==============================================================================

Section Cross References

    main.o(i.main) refers to gpio.o(i.GPIO_LED_Init) for GPIO_LED_Init
    main.o(i.main) refers to gpio.o(i.GPIO_KEY_Init) for GPIO_KEY_Init
    main.o(i.main) refers to gpio.o(i.GPIO_beep_init) for GPIO_beep_init
    main.o(i.main) refers to motor.o(i.PWM_Init) for PWM_Init
    main.o(i.main) refers to sys.o(i.mysys_init) for mysys_init
    main.o(i.main) refers to adc.o(i.adc_init) for adc_init
    main.o(i.main) refers to lcd.o(i.TFTSPI_Init) for TFTSPI_Init
    main.o(i.main) refers to lcd.o(i.TFTSPI_CLS) for TFTSPI_CLS
    main.o(i.main) refers to encoder.o(i.encoder_init) for encoder_init
    main.o(i.main) refers to bluetooth.o(i.Bluetooth_Init) for Bluetooth_Init
    main.o(i.main) refers to i2c_mpu9250.o(i.MPU9250_Set_LPF) for MPU9250_Set_LPF
    main.o(i.main) refers to i2c_mpu9250.o(i.MPU9250_Init) for MPU9250_Init
    main.o(i.main) refers to my_multi_button.o(i.my_button_init) for my_button_init
    main.o(i.main) refers to gpio.o(i.beep_briefly_on) for beep_briefly_on
    main.o(i.main) refers to timer.o(i.TIMER_InitConfig) for TIMER_InitConfig
    main.o(i.main) refers to data_transfer.o(i.ANO_DT_Data_Exchange) for ANO_DT_Data_Exchange
    main.o(i.main) refers to sys.o(i.delayms) for delayms
    hal_adc.o(i.ADC_DeInit) refers to hal_rcc.o(i.RCC_APB2PeriphResetCmd) for RCC_APB2PeriphResetCmd
    hal_div.o(i.Divider_Calc) refers to aeabi_sdiv.o(.text) for __aeabi_uidivmod
    hal_flash.o(i.FLASH_EnableWriteProtection) refers to hal_flash.o(i.FLASH_WaitForLastOperation) for FLASH_WaitForLastOperation
    hal_flash.o(i.FLASH_EraseAllPages) refers to hal_flash.o(i.FLASH_WaitForLastOperation) for FLASH_WaitForLastOperation
    hal_flash.o(i.FLASH_EraseOptionBlock) refers to hal_flash.o(i.FLASH_WaitForLastOperation) for FLASH_WaitForLastOperation
    hal_flash.o(i.FLASH_EraseOptionBytes) refers to hal_flash.o(i.FLASH_WaitForLastOperation) for FLASH_WaitForLastOperation
    hal_flash.o(i.FLASH_ErasePage) refers to hal_flash.o(i.FLASH_WaitForLastOperation) for FLASH_WaitForLastOperation
    hal_flash.o(i.FLASH_ProgramHalfWord) refers to hal_flash.o(i.FLASH_WaitForLastOperation) for FLASH_WaitForLastOperation
    hal_flash.o(i.FLASH_ProgramOptionByteData) refers to hal_flash.o(i.FLASH_WaitForLastOperation) for FLASH_WaitForLastOperation
    hal_flash.o(i.FLASH_ProgramOptionHalfWord) refers to hal_flash.o(i.FLASH_WaitForLastOperation) for FLASH_WaitForLastOperation
    hal_flash.o(i.FLASH_ProgramWord) refers to hal_flash.o(i.FLASH_WaitForLastOperation) for FLASH_WaitForLastOperation
    hal_flash.o(i.FLASH_UserOptionByteConfig) refers to hal_flash.o(i.FLASH_WaitForLastOperation) for FLASH_WaitForLastOperation
    hal_flash.o(i.FLASH_WaitForLastOperation) refers to hal_flash.o(i.FLASH_GetStatus) for FLASH_GetStatus
    hal_flash.o(i.FLASH_WaitForLastOperation) refers to hal_flash.o(i.delay) for delay
    hal_gpio.o(i.GPIO_DeInit) refers to hal_rcc.o(i.RCC_AHBPeriphClockCmd) for RCC_AHBPeriphClockCmd
    hal_i2c.o(i.I2C_CheckEvent) refers to hal_i2c.o(.data) for I2C_CMD_DIR
    hal_i2c.o(i.I2C_DMACmd) refers to hal_i2c.o(.data) for I2C_DMA_DIR
    hal_i2c.o(i.I2C_DeInit) refers to hal_rcc.o(i.RCC_APB1PeriphResetCmd) for RCC_APB1PeriphResetCmd
    hal_i2c.o(i.I2C_GetFlagStatus) refers to hal_i2c.o(.data) for I2C_CMD_DIR
    hal_i2c.o(i.I2C_Init) refers to hal_rcc.o(i.RCC_GetClocksFreq) for RCC_GetClocksFreq
    hal_i2c.o(i.I2C_Init) refers to aeabi_sdiv.o(.text) for __aeabi_uidivmod
    hal_i2c.o(i.I2C_ReceiveData) refers to hal_i2c.o(.data) for I2C_CMD_DIR
    hal_pwr.o(i.PWR_DeInit) refers to hal_rcc.o(i.RCC_APB1PeriphResetCmd) for RCC_APB1PeriphResetCmd
    hal_rcc.o(i.RCC_GetClocksFreq) refers to aeabi_sdiv.o(.text) for __aeabi_uidivmod
    hal_rcc.o(i.RCC_GetClocksFreq) refers to hal_rcc.o(.data) for APBAHBPrescTable
    hal_rcc.o(i.RCC_PLLConfig) refers to hal_rcc.o(i.RCC_PLLDMDNConfig) for RCC_PLLDMDNConfig
    hal_rcc.o(i.RCC_WaitForHSEStartUp) refers to hal_rcc.o(i.RCC_GetFlagStatus) for RCC_GetFlagStatus
    hal_spi.o(i.SPI_DeInit) refers to hal_rcc.o(i.RCC_APB1PeriphResetCmd) for RCC_APB1PeriphResetCmd
    hal_spi.o(i.SPI_DeInit) refers to hal_rcc.o(i.RCC_APB2PeriphResetCmd) for RCC_APB2PeriphResetCmd
    hal_tim.o(i.TIM_DeInit) refers to hal_rcc.o(i.RCC_APB2PeriphResetCmd) for RCC_APB2PeriphResetCmd
    hal_tim.o(i.TIM_DeInit) refers to hal_rcc.o(i.RCC_APB1PeriphResetCmd) for RCC_APB1PeriphResetCmd
    hal_tim.o(i.TIM_ETRClockMode1Config) refers to hal_tim.o(i.TIM_ETRConfig) for TIM_ETRConfig
    hal_tim.o(i.TIM_ETRClockMode2Config) refers to hal_tim.o(i.TIM_ETRConfig) for TIM_ETRConfig
    hal_tim.o(i.TIM_ICInit) refers to hal_tim.o(i.TI1_Config) for TI1_Config
    hal_tim.o(i.TIM_ICInit) refers to hal_tim.o(i.TIM_SetIC1Prescaler) for TIM_SetIC1Prescaler
    hal_tim.o(i.TIM_ICInit) refers to hal_tim.o(i.TI2_Config) for TI2_Config
    hal_tim.o(i.TIM_ICInit) refers to hal_tim.o(i.TIM_SetIC2Prescaler) for TIM_SetIC2Prescaler
    hal_tim.o(i.TIM_ICInit) refers to hal_tim.o(i.TI3_Config) for TI3_Config
    hal_tim.o(i.TIM_ICInit) refers to hal_tim.o(i.TIM_SetIC3Prescaler) for TIM_SetIC3Prescaler
    hal_tim.o(i.TIM_ICInit) refers to hal_tim.o(i.TI4_Config) for TI4_Config
    hal_tim.o(i.TIM_ICInit) refers to hal_tim.o(i.TIM_SetIC4Prescaler) for TIM_SetIC4Prescaler
    hal_tim.o(i.TIM_ITRxExternalClockConfig) refers to hal_tim.o(i.TIM_SelectInputTrigger) for TIM_SelectInputTrigger
    hal_tim.o(i.TIM_PWMIConfig) refers to hal_tim.o(i.TI1_Config) for TI1_Config
    hal_tim.o(i.TIM_PWMIConfig) refers to hal_tim.o(i.TIM_SetIC1Prescaler) for TIM_SetIC1Prescaler
    hal_tim.o(i.TIM_PWMIConfig) refers to hal_tim.o(i.TI2_Config) for TI2_Config
    hal_tim.o(i.TIM_PWMIConfig) refers to hal_tim.o(i.TIM_SetIC2Prescaler) for TIM_SetIC2Prescaler
    hal_tim.o(i.TIM_TIxExternalClockConfig) refers to hal_tim.o(i.TI2_Config) for TI2_Config
    hal_tim.o(i.TIM_TIxExternalClockConfig) refers to hal_tim.o(i.TI1_Config) for TI1_Config
    hal_tim.o(i.TIM_TIxExternalClockConfig) refers to hal_tim.o(i.TIM_SelectInputTrigger) for TIM_SelectInputTrigger
    hal_uart.o(i.UART_DeInit) refers to hal_rcc.o(i.RCC_APB1PeriphResetCmd) for RCC_APB1PeriphResetCmd
    hal_uart.o(i.UART_DeInit) refers to hal_rcc.o(i.RCC_APB2PeriphResetCmd) for RCC_APB2PeriphResetCmd
    hal_uart.o(i.UART_Init) refers to hal_rcc.o(i.RCC_GetClocksFreq) for RCC_GetClocksFreq
    hal_uart.o(i.UART_Init) refers to aeabi_sdiv.o(.text) for __aeabi_uidivmod
    hal_wwdg.o(i.WWDG_DeInit) refers to hal_rcc.o(i.RCC_APB1PeriphResetCmd) for RCC_APB1PeriphResetCmd
    startup_mm32spin2xx_p.o(STACK) refers (Special) to heapauxi.o(.text) for __use_two_region_memory
    startup_mm32spin2xx_p.o(HEAP) refers (Special) to heapauxi.o(.text) for __use_two_region_memory
    startup_mm32spin2xx_p.o(RESET) refers (Special) to heapauxi.o(.text) for __use_two_region_memory
    startup_mm32spin2xx_p.o(RESET) refers to startup_mm32spin2xx_p.o(STACK) for __initial_sp
    startup_mm32spin2xx_p.o(RESET) refers to startup_mm32spin2xx_p.o(.text) for Reset_Handler
    startup_mm32spin2xx_p.o(RESET) refers to sys.o(i.SysTick_Handler) for SysTick_Handler
    startup_mm32spin2xx_p.o(RESET) refers to timer.o(i.TIM1_BRK_UP_TRG_COM_IRQHandler) for TIM1_BRK_UP_TRG_COM_IRQHandler
    startup_mm32spin2xx_p.o(RESET) refers to timer.o(i.TIM14_IRQHandler) for TIM14_IRQHandler
    startup_mm32spin2xx_p.o(RESET) refers to timer.o(i.TIM16_IRQHandler) for TIM16_IRQHandler
    startup_mm32spin2xx_p.o(RESET) refers to timer.o(i.TIM17_IRQHandler) for TIM17_IRQHandler
    startup_mm32spin2xx_p.o(RESET) refers to bluetooth.o(i.UART1_IRQHandler) for UART1_IRQHandler
    startup_mm32spin2xx_p.o(.text) refers (Special) to heapauxi.o(.text) for __use_two_region_memory
    startup_mm32spin2xx_p.o(.text) refers to startup_mm32spin2xx_p.o(STACK) for __initial_sp
    startup_mm32spin2xx_p.o(.text) refers to system_mm32spin2xx_p.o(i.SystemInit) for SystemInit
    startup_mm32spin2xx_p.o(.text) refers to __main.o(!!!main) for __main
    startup_mm32spin2xx_p.o(.text) refers to startup_mm32spin2xx_p.o(HEAP) for Heap_Mem
    system_mm32spin2xx_p.o(i.AutoCalPllFactor) refers to aeabi_sdiv.o(.text) for __aeabi_uidivmod
    system_mm32spin2xx_p.o(i.SetSysClock) refers to system_mm32spin2xx_p.o(i.SetSysClockToXX_HSI) for SetSysClockToXX_HSI
    system_mm32spin2xx_p.o(i.SetSysClockToXX_HSI) refers to aeabi_sdiv.o(.text) for __aeabi_uidivmod
    system_mm32spin2xx_p.o(i.SetSysClockToXX_HSI) refers to system_mm32spin2xx_p.o(i.AutoCalPllFactor) for AutoCalPllFactor
    system_mm32spin2xx_p.o(i.SetSysClockToXX_HSI) refers to system_mm32spin2xx_p.o(.data) for SystemCoreClock
    system_mm32spin2xx_p.o(i.SystemInit) refers to system_mm32spin2xx_p.o(i.SetSysClock) for SetSysClock
    sys.o(i.InitSystick) refers to aeabi_sdiv.o(.text) for __aeabi_uidivmod
    sys.o(i.InitSystick) refers to sys.o(i.NVIC_SetPriority) for NVIC_SetPriority
    sys.o(i.InitSystick) refers to system_mm32spin2xx_p.o(.data) for SystemCoreClock
    sys.o(i.RCC_ConfigInit) refers to hal_rcc.o(i.RCC_AHBPeriphClockCmd) for RCC_AHBPeriphClockCmd
    sys.o(i.SysTick_Handler) refers to sys.o(.data) for SysTick_Count
    sys.o(i.delayms) refers to sys.o(.data) for fac_ms
    sys.o(i.mysys_init) refers to sys.o(i.InitSystick) for InitSystick
    sys.o(i.mysys_init) refers to sys.o(i.RCC_ConfigInit) for RCC_ConfigInit
    sys.o(i.mysys_init) refers to hal_misc.o(i.SysTick_CLKSourceConfig) for SysTick_CLKSourceConfig
    sys.o(i.mysys_init) refers to aeabi_sdiv.o(.text) for __aeabi_uidivmod
    sys.o(i.mysys_init) refers to system_mm32spin2xx_p.o(.data) for SystemCoreClock
    sys.o(i.mysys_init) refers to sys.o(.data) for fac_us
    sys.o(i.nvic_init) refers to hal_misc.o(i.NVIC_Init) for NVIC_Init
    encoder.o(i.encoder_init) refers to hal_rcc.o(i.RCC_AHBPeriphClockCmd) for RCC_AHBPeriphClockCmd
    encoder.o(i.encoder_init) refers to hal_rcc.o(i.RCC_APB2PeriphClockCmd) for RCC_APB2PeriphClockCmd
    encoder.o(i.encoder_init) refers to hal_gpio.o(i.GPIO_PinAFConfig) for GPIO_PinAFConfig
    encoder.o(i.encoder_init) refers to hal_gpio.o(i.GPIO_Init) for GPIO_Init
    encoder.o(i.encoder_init) refers to hal_rcc.o(i.RCC_APB1PeriphClockCmd) for RCC_APB1PeriphClockCmd
    encoder.o(i.test_encoder_lcd) refers to _printf_pad.o(.text) for _printf_pre_padding
    encoder.o(i.test_encoder_lcd) refers to _printf_percent.o(.ARM.Collect$$_printf_percent$$00000000) for _printf_percent
    encoder.o(i.test_encoder_lcd) refers to _printf_d.o(.ARM.Collect$$_printf_percent$$00000009) for _printf_d
    encoder.o(i.test_encoder_lcd) refers to _printf_dec.o(.text) for _printf_int_dec
    encoder.o(i.test_encoder_lcd) refers to lcd.o(i.TFTSPI_Init) for TFTSPI_Init
    encoder.o(i.test_encoder_lcd) refers to lcd.o(i.TFTSPI_CLS) for TFTSPI_CLS
    encoder.o(i.test_encoder_lcd) refers to lcd.o(i.TFTSPI_P8X16Str) for TFTSPI_P8X16Str
    encoder.o(i.test_encoder_lcd) refers to encoder.o(i.encoder_init) for encoder_init
    encoder.o(i.test_encoder_lcd) refers to __2sprintf.o(.text) for __2sprintf
    encoder.o(i.test_encoder_lcd) refers to speedcontrol.o(.data) for left_encoder_puslse
    lcd.o(i.TFTSPI_Addr_Rst) refers to lcd.o(i.TFTSPI_Write_Cmd) for TFTSPI_Write_Cmd
    lcd.o(i.TFTSPI_Addr_Rst) refers to lcd.o(i.TFTSPI_Write_Byte) for TFTSPI_Write_Byte
    lcd.o(i.TFTSPI_BinRoad) refers to lcd.o(i.TFTSPI_Set_Pos) for TFTSPI_Set_Pos
    lcd.o(i.TFTSPI_BinRoad) refers to lcd.o(i.TFTSPI_Write_Word) for TFTSPI_Write_Word
    lcd.o(i.TFTSPI_CLS) refers to lcd.o(i.TFTSPI_Addr_Rst) for TFTSPI_Addr_Rst
    lcd.o(i.TFTSPI_CLS) refers to lcd.o(i.TFTSPI_Write_Word) for TFTSPI_Write_Word
    lcd.o(i.TFTSPI_Draw_Circle) refers to lcd.o(i.TFTSPI_Draw_Dot) for TFTSPI_Draw_Dot
    lcd.o(i.TFTSPI_Draw_Dot) refers to lcd.o(i.TFTSPI_Set_Pos) for TFTSPI_Set_Pos
    lcd.o(i.TFTSPI_Draw_Dot) refers to lcd.o(i.TFTSPI_Write_Word) for TFTSPI_Write_Word
    lcd.o(i.TFTSPI_Draw_Line) refers to lcd.o(i.TFTSPI_Set_Pos) for TFTSPI_Set_Pos
    lcd.o(i.TFTSPI_Draw_Line) refers to lcd.o(i.TFTSPI_Write_Word) for TFTSPI_Write_Word
    lcd.o(i.TFTSPI_Draw_Line) refers to lcd.o(i.TFTSPI_Draw_Dot) for TFTSPI_Draw_Dot
    lcd.o(i.TFTSPI_Draw_Part) refers to lcd.o(i.TFTSPI_Set_Pos) for TFTSPI_Set_Pos
    lcd.o(i.TFTSPI_Draw_Part) refers to lcd.o(i.TFTSPI_Write_Word) for TFTSPI_Write_Word
    lcd.o(i.TFTSPI_Draw_Rectangle) refers to lcd.o(i.TFTSPI_Draw_Line) for TFTSPI_Draw_Line
    lcd.o(i.TFTSPI_Fill_Area) refers to lcd.o(i.TFTSPI_Set_Pos) for TFTSPI_Set_Pos
    lcd.o(i.TFTSPI_Fill_Area) refers to lcd.o(i.TFTSPI_Write_Word) for TFTSPI_Write_Word
    lcd.o(i.TFTSPI_Init) refers to hal_rcc.o(i.RCC_AHBPeriphClockCmd) for RCC_AHBPeriphClockCmd
    lcd.o(i.TFTSPI_Init) refers to hal_gpio.o(i.GPIO_Init) for GPIO_Init
    lcd.o(i.TFTSPI_Init) refers to hal_gpio.o(i.GPIO_ResetBits) for GPIO_ResetBits
    lcd.o(i.TFTSPI_Init) refers to lcd.o(i.lq_tft_delayms) for lq_tft_delayms
    lcd.o(i.TFTSPI_Init) refers to hal_gpio.o(i.GPIO_SetBits) for GPIO_SetBits
    lcd.o(i.TFTSPI_Init) refers to lcd.o(i.TFTSPI_Write_Cmd) for TFTSPI_Write_Cmd
    lcd.o(i.TFTSPI_Init) refers to lcd.o(i.TFTSPI_Write_Byte) for TFTSPI_Write_Byte
    lcd.o(i.TFTSPI_P16x16Str) refers to lcd.o(i.TFTSPI_Set_Pos) for TFTSPI_Set_Pos
    lcd.o(i.TFTSPI_P16x16Str) refers to lcd.o(i.TFTSPI_Write_Word) for TFTSPI_Write_Word
    lcd.o(i.TFTSPI_P16x16Str) refers to lcd.o(.constdata) for hanzi_Idx
    lcd.o(i.TFTSPI_P6X8) refers to lcd.o(i.TFTSPI_Set_Pos) for TFTSPI_Set_Pos
    lcd.o(i.TFTSPI_P6X8) refers to lcd.o(i.TFTSPI_Write_Word) for TFTSPI_Write_Word
    lcd.o(i.TFTSPI_P6X8) refers to lcd.o(.constdata) for Font_code8
    lcd.o(i.TFTSPI_P6X8Str) refers to lcd.o(i.TFTSPI_P6X8) for TFTSPI_P6X8
    lcd.o(i.TFTSPI_P8X16) refers to lcd.o(i.TFTSPI_Set_Pos) for TFTSPI_Set_Pos
    lcd.o(i.TFTSPI_P8X16) refers to lcd.o(i.TFTSPI_Write_Word) for TFTSPI_Write_Word
    lcd.o(i.TFTSPI_P8X16) refers to lcd.o(.constdata) for Font_code16
    lcd.o(i.TFTSPI_P8X16Str) refers to lcd.o(i.TFTSPI_P8X16) for TFTSPI_P8X16
    lcd.o(i.TFTSPI_P8X8) refers to lcd.o(i.TFTSPI_Set_Pos) for TFTSPI_Set_Pos
    lcd.o(i.TFTSPI_P8X8) refers to lcd.o(i.TFTSPI_Write_Word) for TFTSPI_Write_Word
    lcd.o(i.TFTSPI_P8X8) refers to lcd.o(.constdata) for Font_code8
    lcd.o(i.TFTSPI_P8X8Str) refers to lcd.o(i.TFTSPI_P8X8) for TFTSPI_P8X8
    lcd.o(i.TFTSPI_Road) refers to lcd.o(i.TFTSPI_Set_Pos) for TFTSPI_Set_Pos
    lcd.o(i.TFTSPI_Road) refers to lcd.o(i.TFTSPI_Write_Word) for TFTSPI_Write_Word
    lcd.o(i.TFTSPI_Set_Pos) refers to lcd.o(i.TFTSPI_Write_Cmd) for TFTSPI_Write_Cmd
    lcd.o(i.TFTSPI_Set_Pos) refers to lcd.o(i.TFTSPI_Write_Byte) for TFTSPI_Write_Byte
    lcd.o(i.TFTSPI_Show_Battery_Icon) refers to lcd.o(i.TFTSPI_Show_Pic2) for TFTSPI_Show_Pic2
    lcd.o(i.TFTSPI_Show_Battery_Icon) refers to lcd.o(.constdata) for gImage_Battery_S
    lcd.o(i.TFTSPI_Show_Logo) refers to lcd.o(i.TFTSPI_Show_Pic2) for TFTSPI_Show_Pic2
    lcd.o(i.TFTSPI_Show_Logo) refers to lcd.o(.constdata) for gImage_lo
    lcd.o(i.TFTSPI_Show_Pic) refers to lcd.o(i.TFTSPI_Set_Pos) for TFTSPI_Set_Pos
    lcd.o(i.TFTSPI_Show_Pic) refers to lcd.o(i.TFTSPI_Write_Word) for TFTSPI_Write_Word
    lcd.o(i.TFTSPI_Show_Pic2) refers to lcd.o(i.TFTSPI_Set_Pos) for TFTSPI_Set_Pos
    lcd.o(i.TFTSPI_Show_Pic2) refers to lcd.o(i.TFTSPI_Write_Word) for TFTSPI_Write_Word
    lcd.o(i.TFTSPI_Show_Title) refers to lcd.o(i.TFTSPI_Show_Pic2) for TFTSPI_Show_Pic2
    lcd.o(i.TFTSPI_Show_Title) refers to lcd.o(i.TFTSPI_Draw_Line) for TFTSPI_Draw_Line
    lcd.o(i.TFTSPI_Show_Title) refers to lcd.o(.constdata) for gImage_title2
    lcd.o(i.TFTSPI_Write_Byte) refers to hal_gpio.o(i.GPIO_SetBits) for GPIO_SetBits
    lcd.o(i.TFTSPI_Write_Byte) refers to hal_gpio.o(i.GPIO_ResetBits) for GPIO_ResetBits
    lcd.o(i.TFTSPI_Write_Byte) refers to lcd.o(i.tft18delay_1us) for tft18delay_1us
    lcd.o(i.TFTSPI_Write_Cmd) refers to hal_gpio.o(i.GPIO_ResetBits) for GPIO_ResetBits
    lcd.o(i.TFTSPI_Write_Cmd) refers to lcd.o(i.tft18delay_1us) for tft18delay_1us
    lcd.o(i.TFTSPI_Write_Cmd) refers to hal_gpio.o(i.GPIO_SetBits) for GPIO_SetBits
    lcd.o(i.TFTSPI_Write_Word) refers to hal_gpio.o(i.GPIO_SetBits) for GPIO_SetBits
    lcd.o(i.TFTSPI_Write_Word) refers to hal_gpio.o(i.GPIO_ResetBits) for GPIO_ResetBits
    lcd.o(i.TFTSPI_Write_Word) refers to lcd.o(i.tft18delay_1us) for tft18delay_1us
    lcd.o(i.Test_TFT18) refers to _printf_pad.o(.text) for _printf_pre_padding
    lcd.o(i.Test_TFT18) refers to _printf_percent.o(.ARM.Collect$$_printf_percent$$00000000) for _printf_percent
    lcd.o(i.Test_TFT18) refers to _printf_d.o(.ARM.Collect$$_printf_percent$$00000009) for _printf_d
    lcd.o(i.Test_TFT18) refers to _printf_dec.o(.text) for _printf_int_dec
    lcd.o(i.Test_TFT18) refers to lcd.o(i.TFTSPI_Init) for TFTSPI_Init
    lcd.o(i.Test_TFT18) refers to lcd.o(i.TFTSPI_CLS) for TFTSPI_CLS
    lcd.o(i.Test_TFT18) refers to lcd.o(i.TFTSPI_Show_Logo) for TFTSPI_Show_Logo
    lcd.o(i.Test_TFT18) refers to lcd.o(i.TFTSPI_P16x16Str) for TFTSPI_P16x16Str
    lcd.o(i.Test_TFT18) refers to lcd.o(i.TFTSPI_P8X16Str) for TFTSPI_P8X16Str
    lcd.o(i.Test_TFT18) refers to __2sprintf.o(.text) for __2sprintf
    motor.o(i.PWM_Init) refers to hal_rcc.o(i.RCC_AHBPeriphClockCmd) for RCC_AHBPeriphClockCmd
    motor.o(i.PWM_Init) refers to hal_gpio.o(i.GPIO_PinAFConfig) for GPIO_PinAFConfig
    motor.o(i.PWM_Init) refers to hal_gpio.o(i.GPIO_Init) for GPIO_Init
    motor.o(i.PWM_Init) refers to hal_rcc.o(i.RCC_APB1PeriphClockCmd) for RCC_APB1PeriphClockCmd
    motor.o(i.PWM_Init) refers to hal_rcc.o(i.RCC_APB2PeriphClockCmd) for RCC_APB2PeriphClockCmd
    motor.o(i.PWM_Init) refers to hal_tim.o(i.TIM_TimeBaseInit) for TIM_TimeBaseInit
    motor.o(i.PWM_Init) refers to hal_tim.o(i.TIM_OC1Init) for TIM_OC1Init
    motor.o(i.PWM_Init) refers to hal_tim.o(i.TIM_OC2Init) for TIM_OC2Init
    motor.o(i.PWM_Init) refers to hal_tim.o(i.TIM_OC3Init) for TIM_OC3Init
    motor.o(i.PWM_Init) refers to hal_tim.o(i.TIM_OC4Init) for TIM_OC4Init
    motor.o(i.PWM_Init) refers to hal_tim.o(i.TIM_OC1PreloadConfig) for TIM_OC1PreloadConfig
    motor.o(i.PWM_Init) refers to hal_tim.o(i.TIM_OC2PreloadConfig) for TIM_OC2PreloadConfig
    motor.o(i.PWM_Init) refers to hal_tim.o(i.TIM_OC3PreloadConfig) for TIM_OC3PreloadConfig
    motor.o(i.PWM_Init) refers to hal_tim.o(i.TIM_OC4PreloadConfig) for TIM_OC4PreloadConfig
    motor.o(i.PWM_Init) refers to hal_tim.o(i.TIM_ARRPreloadConfig) for TIM_ARRPreloadConfig
    motor.o(i.PWM_Init) refers to hal_tim.o(i.TIM_CtrlPWMOutputs) for TIM_CtrlPWMOutputs
    motor.o(i.PWM_Init) refers to hal_tim.o(i.TIM_Cmd) for TIM_Cmd
    motor.o(i.PWM_Init) refers to motor.o(i.PWM_Set_Duty) for PWM_Set_Duty
    motor.o(i.motor_run) refers to speedcontrol.o(.data) for left_diretion
    motor.o(i.rotate_1) refers to _printf_pad.o(.text) for _printf_pre_padding
    motor.o(i.rotate_1) refers to _printf_percent.o(.ARM.Collect$$_printf_percent$$00000000) for _printf_percent
    motor.o(i.rotate_1) refers to _printf_d.o(.ARM.Collect$$_printf_percent$$00000009) for _printf_d
    motor.o(i.rotate_1) refers to _printf_dec.o(.text) for _printf_int_dec
    motor.o(i.rotate_1) refers to motor.o(i.motor_run) for motor_run
    motor.o(i.rotate_1) refers to f2d.o(.text) for __aeabi_f2d
    motor.o(i.rotate_1) refers to __2sprintf.o(.text) for __2sprintf
    motor.o(i.rotate_1) refers to lcd.o(i.TFTSPI_P8X16Str) for TFTSPI_P8X16Str
    motor.o(i.rotate_1) refers to faddsub.o(x$fpl$fadd) for __aeabi_fadd
    motor.o(i.rotate_1) refers to flef.o(x$fpl$fleqf) for __aeabi_cfcmple
    motor.o(i.rotate_1) refers to speedcontrol.o(.data) for left_diretion
    motor.o(i.rotate_1) refers to motor.o(.data) for rotate_speed
    motor.o(i.rotate_1) refers to adc.o(.data) for adc_left
    motor.o(i.rotate_1) refers to motor.o(.bss) for txt
    motor.o(i.rotate_2) refers to _printf_pad.o(.text) for _printf_pre_padding
    motor.o(i.rotate_2) refers to _printf_percent.o(.ARM.Collect$$_printf_percent$$00000000) for _printf_percent
    motor.o(i.rotate_2) refers to _printf_d.o(.ARM.Collect$$_printf_percent$$00000009) for _printf_d
    motor.o(i.rotate_2) refers to _printf_dec.o(.text) for _printf_int_dec
    motor.o(i.rotate_2) refers to motor.o(i.motor_run) for motor_run
    motor.o(i.rotate_2) refers to f2d.o(.text) for __aeabi_f2d
    motor.o(i.rotate_2) refers to __2sprintf.o(.text) for __2sprintf
    motor.o(i.rotate_2) refers to lcd.o(i.TFTSPI_P8X16Str) for TFTSPI_P8X16Str
    motor.o(i.rotate_2) refers to faddsub.o(x$fpl$fadd) for __aeabi_fadd
    motor.o(i.rotate_2) refers to flef.o(x$fpl$fleqf) for __aeabi_cfcmple
    motor.o(i.rotate_2) refers to speedcontrol.o(.data) for left_diretion
    motor.o(i.rotate_2) refers to motor.o(.data) for rotate_speed
    motor.o(i.rotate_2) refers to adc.o(.data) for adc_left
    motor.o(i.rotate_2) refers to motor.o(.bss) for txt
    timer.o(i.TIM14_IRQHandler) refers to hal_tim.o(i.TIM_GetITStatus) for TIM_GetITStatus
    timer.o(i.TIM14_IRQHandler) refers to hal_tim.o(i.TIM_ClearITPendingBit) for TIM_ClearITPendingBit
    timer.o(i.TIM16_IRQHandler) refers to hal_tim.o(i.TIM_GetITStatus) for TIM_GetITStatus
    timer.o(i.TIM16_IRQHandler) refers to hal_tim.o(i.TIM_ClearITPendingBit) for TIM_ClearITPendingBit
    timer.o(i.TIM16_IRQHandler) refers to multi_button.o(i.button_ticks) for button_ticks
    timer.o(i.TIM16_IRQHandler) refers to gpio.o(i.beep_ON) for beep_ON
    timer.o(i.TIM16_IRQHandler) refers to gpio.o(i.beep_OFF) for beep_OFF
    timer.o(i.TIM16_IRQHandler) refers to dflti.o(.text) for __aeabi_i2d
    timer.o(i.TIM16_IRQHandler) refers to dmul.o(.text) for __aeabi_dmul
    timer.o(i.TIM16_IRQHandler) refers to d2f.o(.text) for __aeabi_d2f
    timer.o(i.TIM16_IRQHandler) refers to adc.o(i.ADC1_Read) for ADC1_Read
    timer.o(i.TIM16_IRQHandler) refers to fflti.o(.text) for __aeabi_ui2f
    timer.o(i.TIM16_IRQHandler) refers to speedcontrol.o(i.cacl_error_1) for cacl_error_1
    timer.o(i.TIM16_IRQHandler) refers to angle.o(i.angle_hanlder) for angle_hanlder
    timer.o(i.TIM16_IRQHandler) refers to flef.o(x$fpl$fleqf) for __aeabi_cfcmple
    timer.o(i.TIM16_IRQHandler) refers to frlef.o(x$fpl$frleqf) for __aeabi_cfrcmple
    timer.o(i.TIM16_IRQHandler) refers to balance.o(i.balance) for balance
    timer.o(i.TIM16_IRQHandler) refers to balance.o(i.angle_is_normal) for angle_is_normal
    timer.o(i.TIM16_IRQHandler) refers to balance.o(i.velocity) for velocity
    timer.o(i.TIM16_IRQHandler) refers to control_task.o(i.judgeOandY) for judgeOandY
    timer.o(i.TIM16_IRQHandler) refers to balance.o(i.turn) for turn
    timer.o(i.TIM16_IRQHandler) refers to buzzerdriver.o(i.musicPlay) for musicPlay
    timer.o(i.TIM16_IRQHandler) refers to balance.o(i.set_pwm) for set_pwm
    timer.o(i.TIM16_IRQHandler) refers to buzzerdriver.o(i.music4Play) for music4Play
    timer.o(i.TIM16_IRQHandler) refers to gpio.o(i.LED_trun) for LED_trun
    timer.o(i.TIM16_IRQHandler) refers to timer.o(.data) for buzzer_flag
    timer.o(i.TIM16_IRQHandler) refers to speedcontrol.o(.data) for left_encoder_puslse
    timer.o(i.TIM16_IRQHandler) refers to adc.o(.data) for adc_left
    timer.o(i.TIM16_IRQHandler) refers to angle.o(.data) for angle
    timer.o(i.TIM16_IRQHandler) refers to balance.o(.data) for Flag_Stop
    timer.o(i.TIM17_IRQHandler) refers to hal_tim.o(i.TIM_GetITStatus) for TIM_GetITStatus
    timer.o(i.TIM17_IRQHandler) refers to hal_tim.o(i.TIM_ClearITPendingBit) for TIM_ClearITPendingBit
    timer.o(i.TIM1_BRK_UP_TRG_COM_IRQHandler) refers to hal_tim.o(i.TIM_GetITStatus) for TIM_GetITStatus
    timer.o(i.TIM1_BRK_UP_TRG_COM_IRQHandler) refers to hal_tim.o(i.TIM_ClearITPendingBit) for TIM_ClearITPendingBit
    timer.o(i.TIMER_InitConfig) refers to hal_rcc.o(i.RCC_APB2PeriphClockCmd) for RCC_APB2PeriphClockCmd
    timer.o(i.TIMER_InitConfig) refers to hal_rcc.o(i.RCC_APB1PeriphClockCmd) for RCC_APB1PeriphClockCmd
    timer.o(i.TIMER_InitConfig) refers to aeabi_sdiv.o(.text) for __aeabi_uidivmod
    timer.o(i.TIMER_InitConfig) refers to hal_tim.o(i.TIM_TimeBaseInit) for TIM_TimeBaseInit
    timer.o(i.TIMER_InitConfig) refers to hal_tim.o(i.TIM_ITConfig) for TIM_ITConfig
    timer.o(i.TIMER_InitConfig) refers to sys.o(i.nvic_init) for nvic_init
    timer.o(i.TIMER_InitConfig) refers to hal_tim.o(i.TIM_Cmd) for TIM_Cmd
    timer.o(i.TIMER_InitConfig) refers to system_mm32spin2xx_p.o(.data) for SystemCoreClock
    timer.o(i.TIMER_InitConfig) refers to timer.o(.constdata) for TIMERx
    adc.o(i.ADC1_CHx_Init) refers to hal_rcc.o(i.RCC_APB2PeriphClockCmd) for RCC_APB2PeriphClockCmd
    adc.o(i.ADC1_CHx_Init) refers to hal_rcc.o(i.RCC_AHBPeriphClockCmd) for RCC_AHBPeriphClockCmd
    adc.o(i.ADC1_CHx_Init) refers to adc.o(i.__ARM_common_switch8) for __ARM_common_switch8
    adc.o(i.ADC1_CHx_Init) refers to hal_gpio.o(i.GPIO_Init) for GPIO_Init
    adc.o(i.ADC1_CHx_Init) refers to hal_adc.o(i.ADC_Init) for ADC_Init
    adc.o(i.ADC1_CHx_Init) refers to hal_adc.o(i.ADC_RegularChannelConfig) for ADC_RegularChannelConfig
    adc.o(i.ADC1_CHx_Init) refers to hal_adc.o(i.ADC_Cmd) for ADC_Cmd
    adc.o(i.ADC1_CHx_Init) refers to hal_adc.o(i.ADC_SoftwareStartConvCmd) for ADC_SoftwareStartConvCmd
    adc.o(i.ADC1_Read_Average) refers to adc.o(i.ADC1_Read) for ADC1_Read
    adc.o(i.ADC1_Read_Average) refers to aeabi_sdiv.o(.text) for __aeabi_uidivmod
    adc.o(i.Test_ADC1) refers to _printf_pad.o(.text) for _printf_pre_padding
    adc.o(i.Test_ADC1) refers to _printf_percent.o(.ARM.Collect$$_printf_percent$$00000000) for _printf_percent
    adc.o(i.Test_ADC1) refers to _printf_d.o(.ARM.Collect$$_printf_percent$$00000009) for _printf_d
    adc.o(i.Test_ADC1) refers to _printf_dec.o(.text) for _printf_int_dec
    adc.o(i.Test_ADC1) refers to adc.o(i.adc_init) for adc_init
    adc.o(i.Test_ADC1) refers to lcd.o(i.TFTSPI_Init) for TFTSPI_Init
    adc.o(i.Test_ADC1) refers to lcd.o(i.TFTSPI_CLS) for TFTSPI_CLS
    adc.o(i.Test_ADC1) refers to adc.o(i.ADC1_Read) for ADC1_Read
    adc.o(i.Test_ADC1) refers to __2sprintf.o(.text) for __2sprintf
    adc.o(i.Test_ADC1) refers to lcd.o(i.TFTSPI_P8X16Str) for TFTSPI_P8X16Str
    adc.o(i.adc_init) refers to adc.o(i.ADC1_CHx_Init) for ADC1_CHx_Init
    trace.o(i.adc_value_processing) refers to faddsub.o(x$fpl$fadd) for __aeabi_fadd
    trace.o(i.adc_value_processing) refers to ffixi.o(.text) for __aeabi_f2iz
    trace.o(i.adc_value_processing) refers to adc.o(.data) for adc_right
    trace.o(i.error_processing) refers to speedcontrol.o(.data) for average_speed
    trace.o(i.if_outway) refers to trace.o(i.where_is_the_line) for where_is_the_line
    trace.o(i.if_outway) refers to speedcontrol.o(i.Abs) for Abs
    trace.o(i.if_outway) refers to trace.o(.data) for line_position
    trace.o(i.where_is_the_line) refers to _printf_pad.o(.text) for _printf_pre_padding
    trace.o(i.where_is_the_line) refers to _printf_percent.o(.ARM.Collect$$_printf_percent$$00000000) for _printf_percent
    trace.o(i.where_is_the_line) refers to _printf_d.o(.ARM.Collect$$_printf_percent$$00000009) for _printf_d
    trace.o(i.where_is_the_line) refers to _printf_dec.o(.text) for _printf_int_dec
    trace.o(i.where_is_the_line) refers to faddsub.o(x$fpl$fadd) for __aeabi_fadd
    trace.o(i.where_is_the_line) refers to fdiv.o(.text) for __aeabi_fdiv
    trace.o(i.where_is_the_line) refers to ffixi.o(.text) for __aeabi_f2iz
    trace.o(i.where_is_the_line) refers to flef.o(x$fpl$fleqf) for __aeabi_cfcmple
    trace.o(i.where_is_the_line) refers to __2sprintf.o(.text) for __2sprintf
    trace.o(i.where_is_the_line) refers to lcd.o(i.TFTSPI_P8X16Str) for TFTSPI_P8X16Str
    trace.o(i.where_is_the_line) refers to adc.o(.data) for adc_right
    trace.o(i.where_is_the_line) refers to trace.o(.data) for line_position
    speedcontrol.o(i.KalmanFilter) refers to faddsub.o(x$fpl$fadd) for __aeabi_fadd
    speedcontrol.o(i.KalmanFilter) refers to fdiv.o(.text) for __aeabi_fdiv
    speedcontrol.o(i.KalmanFilter) refers to faddsub.o(x$fpl$fsub) for __aeabi_fsub
    speedcontrol.o(i.KalmanFilter) refers to fmul.o(x$fpl$fmul) for __aeabi_fmul
    speedcontrol.o(i.KalmanFilter) refers to speedcontrol.o(.data) for q
    speedcontrol.o(i.cacl_error_1) refers to f2d.o(.text) for __aeabi_f2d
    speedcontrol.o(i.cacl_error_1) refers to sqrt.o(i.sqrt) for sqrt
    speedcontrol.o(i.cacl_error_1) refers to faddsub.o(x$fpl$fadd) for __aeabi_fadd
    speedcontrol.o(i.cacl_error_1) refers to daddsub.o(.text) for __aeabi_dsub
    speedcontrol.o(i.cacl_error_1) refers to dmul.o(.text) for __aeabi_dmul
    speedcontrol.o(i.cacl_error_1) refers to ddiv.o(.text) for __aeabi_ddiv
    speedcontrol.o(i.cacl_error_1) refers to dlef.o(x$fpl$dleqf) for __aeabi_cdcmple
    speedcontrol.o(i.cacl_error_1) refers to d2f.o(.text) for __aeabi_d2f
    speedcontrol.o(i.cacl_error_1) refers to speedcontrol.o(i.float_Abs) for float_Abs
    speedcontrol.o(i.cacl_error_1) refers to trace.o(i.error_processing) for error_processing
    speedcontrol.o(i.cacl_error_1) refers to dfixi.o(.text) for __aeabi_d2iz
    speedcontrol.o(i.cacl_error_1) refers to adc.o(.data) for adc_left
    speedcontrol.o(i.cacl_error_1) refers to speedcontrol.o(.data) for error
    speedcontrol.o(i.float_Abs) refers to frlef.o(x$fpl$frleqf) for __aeabi_cfrcmple
    speedcontrol.o(i.sum_speed) refers to dflti.o(.text) for __aeabi_i2d
    speedcontrol.o(i.sum_speed) refers to dmul.o(.text) for __aeabi_dmul
    speedcontrol.o(i.sum_speed) refers to d2f.o(.text) for __aeabi_d2f
    speedcontrol.o(i.sum_speed) refers to fflti.o(.text) for __aeabi_i2f
    speedcontrol.o(i.sum_speed) refers to speedcontrol.o(i.float_Abs) for float_Abs
    speedcontrol.o(i.sum_speed) refers to frlef.o(x$fpl$frleqf) for __aeabi_cfrcmple
    speedcontrol.o(i.sum_speed) refers to faddsub.o(x$fpl$fadd) for __aeabi_fadd
    speedcontrol.o(i.sum_speed) refers to ffixi.o(.text) for __aeabi_f2iz
    speedcontrol.o(i.sum_speed) refers to speedcontrol.o(.data) for left_encoder_puslse
    speedcontrol.o(i.update_pwm) refers to fflti.o(.text) for __aeabi_i2f
    speedcontrol.o(i.update_pwm) refers to speedcontrol.o(i.update_pwm_left) for update_pwm_left
    speedcontrol.o(i.update_pwm) refers to speedcontrol.o(i.update_pwm_right) for update_pwm_right
    speedcontrol.o(i.update_pwm) refers to speedcontrol.o(.data) for sum_left_speed
    speedcontrol.o(i.update_pwm_left) refers to faddsub.o(x$fpl$frsb) for __aeabi_frsub
    speedcontrol.o(i.update_pwm_left) refers to fmul.o(x$fpl$fmul) for __aeabi_fmul
    speedcontrol.o(i.update_pwm_left) refers to faddsub.o(x$fpl$fadd) for __aeabi_fadd
    speedcontrol.o(i.update_pwm_left) refers to faddsub.o(x$fpl$fsub) for __aeabi_fsub
    speedcontrol.o(i.update_pwm_left) refers to fflti.o(.text) for __aeabi_i2f
    speedcontrol.o(i.update_pwm_left) refers to ffixi.o(.text) for __aeabi_f2iz
    speedcontrol.o(i.update_pwm_left) refers to speedcontrol.o(.data) for error_1
    speedcontrol.o(i.update_pwm_right) refers to faddsub.o(x$fpl$frsb) for __aeabi_frsub
    speedcontrol.o(i.update_pwm_right) refers to fmul.o(x$fpl$fmul) for __aeabi_fmul
    speedcontrol.o(i.update_pwm_right) refers to faddsub.o(x$fpl$fadd) for __aeabi_fadd
    speedcontrol.o(i.update_pwm_right) refers to faddsub.o(x$fpl$fsub) for __aeabi_fsub
    speedcontrol.o(i.update_pwm_right) refers to fflti.o(.text) for __aeabi_i2f
    speedcontrol.o(i.update_pwm_right) refers to ffixi.o(.text) for __aeabi_f2iz
    speedcontrol.o(i.update_pwm_right) refers to speedcontrol.o(.data) for error_2
    bluetooth.o(i.Bluetooth_Init) refers to hal_rcc.o(i.RCC_APB2PeriphClockCmd) for RCC_APB2PeriphClockCmd
    bluetooth.o(i.Bluetooth_Init) refers to hal_rcc.o(i.RCC_AHBPeriphClockCmd) for RCC_AHBPeriphClockCmd
    bluetooth.o(i.Bluetooth_Init) refers to hal_gpio.o(i.GPIO_Init) for GPIO_Init
    bluetooth.o(i.Bluetooth_Init) refers to hal_gpio.o(i.GPIO_PinAFConfig) for GPIO_PinAFConfig
    bluetooth.o(i.Bluetooth_Init) refers to hal_uart.o(i.UART_Init) for UART_Init
    bluetooth.o(i.Bluetooth_Init) refers to bluetooth.o(i.UART_RX_IRQ_Config) for UART_RX_IRQ_Config
    bluetooth.o(i.Bluetooth_Init) refers to hal_uart.o(i.UART_Cmd) for UART_Cmd
    bluetooth.o(i.Test_Bluetooth) refers to _printf_percent.o(.ARM.Collect$$_printf_percent$$00000000) for _printf_percent
    bluetooth.o(i.Test_Bluetooth) refers to _printf_f.o(.ARM.Collect$$_printf_percent$$00000003) for _printf_f
    bluetooth.o(i.Test_Bluetooth) refers to printf1.o(x$fpl$printf1) for _printf_fp_dec
    bluetooth.o(i.Test_Bluetooth) refers to bluetooth.o(i.Bluetooth_Init) for Bluetooth_Init
    bluetooth.o(i.Test_Bluetooth) refers to f2d.o(.text) for __aeabi_f2d
    bluetooth.o(i.Test_Bluetooth) refers to daddsub.o(.text) for __aeabi_dadd
    bluetooth.o(i.Test_Bluetooth) refers to d2f.o(.text) for __aeabi_d2f
    bluetooth.o(i.Test_Bluetooth) refers to __2sprintf.o(.text) for __2sprintf
    bluetooth.o(i.Test_Bluetooth) refers to bluetooth.o(i.UART_PutStr) for UART_PutStr
    bluetooth.o(i.Test_Bluetooth) refers to bluetooth.o(i.UART_PutChar) for UART_PutChar
    bluetooth.o(i.Test_Bluetooth) refers to sys.o(i.delayms) for delayms
    bluetooth.o(i.UART1_IRQHandler) refers to hal_uart.o(i.UART_GetFlagStatus) for UART_GetFlagStatus
    bluetooth.o(i.UART1_IRQHandler) refers to hal_uart.o(i.UART_ClearITPendingBit) for UART_ClearITPendingBit
    bluetooth.o(i.UART1_IRQHandler) refers to bluetooth.o(i.UART_GetChar) for UART_GetChar
    bluetooth.o(i.UART1_IRQHandler) refers to data_transfer.o(i.ANO_DT_Data_Receive_Prepare) for ANO_DT_Data_Receive_Prepare
    bluetooth.o(i.UART1_IRQHandler) refers to shell_port.o(.data) for recv_buf
    bluetooth.o(i.UART_GetChar) refers to hal_uart.o(i.UART_ReceiveData) for UART_ReceiveData
    bluetooth.o(i.UART_PutChar) refers to hal_uart.o(i.UART_SendData) for UART_SendData
    bluetooth.o(i.UART_PutChar) refers to hal_uart.o(i.UART_GetFlagStatus) for UART_GetFlagStatus
    bluetooth.o(i.UART_PutStr) refers to bluetooth.o(i.UART_PutChar) for UART_PutChar
    bluetooth.o(i.UART_RX_IRQ_Config) refers to hal_uart.o(i.UART_ITConfig) for UART_ITConfig
    bluetooth.o(i.UART_RX_IRQ_Config) refers to sys.o(i.nvic_init) for nvic_init
    bluetooth.o(i.UART_TX_IRQ_Config) refers to hal_uart.o(i.UART_ITConfig) for UART_ITConfig
    bluetooth.o(i.UART_TX_IRQ_Config) refers to sys.o(i.nvic_init) for nvic_init
    bluetooth.o(i._write) refers to hal_uart.o(i.UART_GetFlagStatus) for UART_GetFlagStatus
    bluetooth.o(i._write) refers to bluetooth.o(i.UART_PutChar) for UART_PutChar
    bluetooth.o(i.send_speed_and_pwm) refers to _printf_percent.o(.ARM.Collect$$_printf_percent$$00000000) for _printf_percent
    bluetooth.o(i.send_speed_and_pwm) refers to _printf_f.o(.ARM.Collect$$_printf_percent$$00000003) for _printf_f
    bluetooth.o(i.send_speed_and_pwm) refers to printf1.o(x$fpl$printf1) for _printf_fp_dec
    bluetooth.o(i.send_speed_and_pwm) refers to _printf_d.o(.ARM.Collect$$_printf_percent$$00000009) for _printf_d
    bluetooth.o(i.send_speed_and_pwm) refers to _printf_dec.o(.text) for _printf_int_dec
    bluetooth.o(i.send_speed_and_pwm) refers to f2d.o(.text) for __aeabi_f2d
    bluetooth.o(i.send_speed_and_pwm) refers to __2sprintf.o(.text) for __2sprintf
    bluetooth.o(i.send_speed_and_pwm) refers to bluetooth.o(i.UART_PutStr) for UART_PutStr
    bluetooth.o(i.send_speed_and_pwm) refers to bluetooth.o(i.UART_PutChar) for UART_PutChar
    bluetooth.o(i.send_speed_and_pwm) refers to speedcontrol.o(.data) for now_speed_left
    gpio.o(i.GPIO_KEY_Init) refers to hal_rcc.o(i.RCC_AHBPeriphClockCmd) for RCC_AHBPeriphClockCmd
    gpio.o(i.GPIO_KEY_Init) refers to hal_gpio.o(i.GPIO_Init) for GPIO_Init
    gpio.o(i.GPIO_LED_Init) refers to hal_rcc.o(i.RCC_AHBPeriphClockCmd) for RCC_AHBPeriphClockCmd
    gpio.o(i.GPIO_LED_Init) refers to hal_gpio.o(i.GPIO_Init) for GPIO_Init
    gpio.o(i.GPIO_beep_init) refers to hal_rcc.o(i.RCC_AHBPeriphClockCmd) for RCC_AHBPeriphClockCmd
    gpio.o(i.GPIO_beep_init) refers to hal_gpio.o(i.GPIO_Init) for GPIO_Init
    gpio.o(i.LED_trun) refers to hal_gpio.o(i.GPIO_SetBits) for GPIO_SetBits
    gpio.o(i.LED_trun) refers to hal_gpio.o(i.GPIO_ResetBits) for GPIO_ResetBits
    gpio.o(i.LED_trun) refers to gpio.o(.data) for IF_LED_B10_TURN
    gpio.o(i.beep_OFF) refers to hal_gpio.o(i.GPIO_ResetBits) for GPIO_ResetBits
    gpio.o(i.beep_ON) refers to hal_gpio.o(i.GPIO_SetBits) for GPIO_SetBits
    gpio.o(i.beep_briefly_on) refers to gpio.o(i.beep_ON) for beep_ON
    gpio.o(i.beep_briefly_on) refers to sys.o(i.delayms) for delayms
    gpio.o(i.beep_briefly_on) refers to gpio.o(i.beep_OFF) for beep_OFF
    gpio.o(i.beep_on_once) refers to gpio.o(i.beep_ON) for beep_ON
    gpio.o(i.beep_on_once) refers to sys.o(i.delayms) for delayms
    gpio.o(i.beep_on_once) refers to gpio.o(i.beep_OFF) for beep_OFF
    gpio.o(i.if_key_one) refers to hal_gpio.o(i.GPIO_ReadInputDataBit) for GPIO_ReadInputDataBit
    gpio.o(i.if_key_two) refers to hal_gpio.o(i.GPIO_ReadInputDataBit) for GPIO_ReadInputDataBit
    gpio.o(i.if_key_zero) refers to hal_gpio.o(i.GPIO_ReadInputDataBit) for GPIO_ReadInputDataBit
    gpio.o(i.led_toggle) refers to hal_gpio.o(i.GPIO_WriteBit) for GPIO_WriteBit
    gpio.o(i.led_toggle) refers to gpio.o(.data) for i
    gpio.o(i.start_or_stop) refers to _printf_pad.o(.text) for _printf_pre_padding
    gpio.o(i.start_or_stop) refers to _printf_percent.o(.ARM.Collect$$_printf_percent$$00000000) for _printf_percent
    gpio.o(i.start_or_stop) refers to _printf_d.o(.ARM.Collect$$_printf_percent$$00000009) for _printf_d
    gpio.o(i.start_or_stop) refers to _printf_dec.o(.text) for _printf_int_dec
    gpio.o(i.start_or_stop) refers to adc.o(i.ADC1_Read) for ADC1_Read
    gpio.o(i.start_or_stop) refers to __2sprintf.o(.text) for __2sprintf
    gpio.o(i.start_or_stop) refers to lcd.o(i.TFTSPI_P8X16Str) for TFTSPI_P8X16Str
    gpio.o(i.start_or_stop) refers to gpio.o(i.beep_briefly_on) for beep_briefly_on
    gpio.o(i.start_or_stop) refers to lcd.o(i.TFTSPI_CLS) for TFTSPI_CLS
    gpio.o(i.start_or_stop) refers to motor.o(i.PWM_Set_Duty) for PWM_Set_Duty
    gpio.o(i.start_or_stop) refers to gpio.o(.data) for if_key
    gpio.o(i.start_or_stop) refers to timer.o(.data) for if_car_move
    angle.o(i.Get_Angle) refers to fflti.o(.text) for __aeabi_i2f
    angle.o(i.Get_Angle) refers to dflti.o(.text) for __aeabi_i2d
    angle.o(i.Get_Angle) refers to atan2.o(i.atan2) for atan2
    angle.o(i.Get_Angle) refers to dmul.o(.text) for __aeabi_dmul
    angle.o(i.Get_Angle) refers to ddiv.o(.text) for __aeabi_ddiv
    angle.o(i.Get_Angle) refers to d2f.o(.text) for __aeabi_d2f
    angle.o(i.Get_Angle) refers to dfixi.o(.text) for __aeabi_d2iz
    angle.o(i.Get_Angle) refers to angle.o(i.Yijielvbo) for Yijielvbo
    angle.o(i.Get_Angle) refers to fmul.o(x$fpl$fmul) for __aeabi_fmul
    angle.o(i.Get_Angle) refers to ffixi.o(.text) for __aeabi_f2iz
    angle.o(i.Get_Angle) refers to angle.o(.bss) for mpu6050
    angle.o(i.Get_Angle) refers to angle.o(.data) for Gyro_Balance
    angle.o(i.Yijielvbo) refers to f2d.o(.text) for __aeabi_f2d
    angle.o(i.Yijielvbo) refers to dmul.o(.text) for __aeabi_dmul
    angle.o(i.Yijielvbo) refers to daddsub.o(.text) for __aeabi_dadd
    angle.o(i.Yijielvbo) refers to faddsub.o(x$fpl$fsub) for __aeabi_fsub
    angle.o(i.Yijielvbo) refers to fmul.o(x$fpl$fmul) for __aeabi_fmul
    angle.o(i.Yijielvbo) refers to d2f.o(.text) for __aeabi_d2f
    angle.o(i.Yijielvbo) refers to angle.o(.data) for angle
    angle.o(i.angle_hanlder) refers to i2c_mpu9250.o(i.MPU9250_Get_Raw_data) for MPU9250_Get_Raw_data
    angle.o(i.angle_hanlder) refers to angle.o(i.Get_Angle) for Get_Angle
    angle.o(i.angle_hanlder) refers to angle.o(.bss) for mpu6050
    angle.o(shellCommand) refers to angle.o(.constdata) for shellCmda
    angle.o(shellCommand) refers to angle.o(.data) for debug_angle
    softi2c.o(i.IIC_Ack) refers to hal_gpio.o(i.GPIO_ResetBits) for GPIO_ResetBits
    softi2c.o(i.IIC_Ack) refers to softi2c.o(i.MPU9250_SDA_Out) for MPU9250_SDA_Out
    softi2c.o(i.IIC_Ack) refers to softi2c.o(i.iic_delay) for iic_delay
    softi2c.o(i.IIC_Ack) refers to hal_gpio.o(i.GPIO_SetBits) for GPIO_SetBits
    softi2c.o(i.IIC_Init) refers to softi2c.o(i.MPU9250_SCL_Out) for MPU9250_SCL_Out
    softi2c.o(i.IIC_Init) refers to softi2c.o(i.MPU9250_SDA_Out) for MPU9250_SDA_Out
    softi2c.o(i.IIC_Init) refers to hal_gpio.o(i.GPIO_SetBits) for GPIO_SetBits
    softi2c.o(i.IIC_NAck) refers to hal_gpio.o(i.GPIO_ResetBits) for GPIO_ResetBits
    softi2c.o(i.IIC_NAck) refers to softi2c.o(i.MPU9250_SDA_Out) for MPU9250_SDA_Out
    softi2c.o(i.IIC_NAck) refers to hal_gpio.o(i.GPIO_SetBits) for GPIO_SetBits
    softi2c.o(i.IIC_NAck) refers to softi2c.o(i.iic_delay) for iic_delay
    softi2c.o(i.IIC_ReadByte) refers to softi2c.o(i.MPU9250_SDA_In) for MPU9250_SDA_In
    softi2c.o(i.IIC_ReadByte) refers to hal_gpio.o(i.GPIO_ResetBits) for GPIO_ResetBits
    softi2c.o(i.IIC_ReadByte) refers to softi2c.o(i.iic_delay) for iic_delay
    softi2c.o(i.IIC_ReadByte) refers to hal_gpio.o(i.GPIO_SetBits) for GPIO_SetBits
    softi2c.o(i.IIC_ReadByte) refers to hal_gpio.o(i.GPIO_ReadInputDataBit) for GPIO_ReadInputDataBit
    softi2c.o(i.IIC_ReadByte) refers to softi2c.o(i.IIC_Ack) for IIC_Ack
    softi2c.o(i.IIC_ReadByte) refers to softi2c.o(i.IIC_NAck) for IIC_NAck
    softi2c.o(i.IIC_ReadByteFromSlave) refers to softi2c.o(i.IIC_Start) for IIC_Start
    softi2c.o(i.IIC_ReadByteFromSlave) refers to softi2c.o(i.IIC_SendByte) for IIC_SendByte
    softi2c.o(i.IIC_ReadByteFromSlave) refers to softi2c.o(i.IIC_WaitAck) for IIC_WaitAck
    softi2c.o(i.IIC_ReadByteFromSlave) refers to softi2c.o(i.IIC_Stop) for IIC_Stop
    softi2c.o(i.IIC_ReadByteFromSlave) refers to softi2c.o(i.IIC_ReadByte) for IIC_ReadByte
    softi2c.o(i.IIC_ReadMultByteFromSlave) refers to softi2c.o(i.IIC_Start) for IIC_Start
    softi2c.o(i.IIC_ReadMultByteFromSlave) refers to softi2c.o(i.IIC_SendByte) for IIC_SendByte
    softi2c.o(i.IIC_ReadMultByteFromSlave) refers to softi2c.o(i.IIC_WaitAck) for IIC_WaitAck
    softi2c.o(i.IIC_ReadMultByteFromSlave) refers to softi2c.o(i.IIC_Stop) for IIC_Stop
    softi2c.o(i.IIC_ReadMultByteFromSlave) refers to softi2c.o(i.IIC_ReadByte) for IIC_ReadByte
    softi2c.o(i.IIC_SendByte) refers to softi2c.o(i.MPU9250_SDA_Out) for MPU9250_SDA_Out
    softi2c.o(i.IIC_SendByte) refers to hal_gpio.o(i.GPIO_ResetBits) for GPIO_ResetBits
    softi2c.o(i.IIC_SendByte) refers to hal_gpio.o(i.GPIO_SetBits) for GPIO_SetBits
    softi2c.o(i.IIC_SendByte) refers to softi2c.o(i.iic_delay) for iic_delay
    softi2c.o(i.IIC_Start) refers to softi2c.o(i.MPU9250_SDA_Out) for MPU9250_SDA_Out
    softi2c.o(i.IIC_Start) refers to hal_gpio.o(i.GPIO_SetBits) for GPIO_SetBits
    softi2c.o(i.IIC_Start) refers to softi2c.o(i.iic_delay) for iic_delay
    softi2c.o(i.IIC_Start) refers to hal_gpio.o(i.GPIO_ResetBits) for GPIO_ResetBits
    softi2c.o(i.IIC_Stop) refers to softi2c.o(i.MPU9250_SDA_Out) for MPU9250_SDA_Out
    softi2c.o(i.IIC_Stop) refers to hal_gpio.o(i.GPIO_ResetBits) for GPIO_ResetBits
    softi2c.o(i.IIC_Stop) refers to softi2c.o(i.iic_delay) for iic_delay
    softi2c.o(i.IIC_Stop) refers to hal_gpio.o(i.GPIO_SetBits) for GPIO_SetBits
    softi2c.o(i.IIC_WaitAck) refers to softi2c.o(i.MPU9250_SDA_In) for MPU9250_SDA_In
    softi2c.o(i.IIC_WaitAck) refers to hal_gpio.o(i.GPIO_SetBits) for GPIO_SetBits
    softi2c.o(i.IIC_WaitAck) refers to softi2c.o(i.iic_delay) for iic_delay
    softi2c.o(i.IIC_WaitAck) refers to softi2c.o(i.IIC_Stop) for IIC_Stop
    softi2c.o(i.IIC_WaitAck) refers to hal_gpio.o(i.GPIO_ReadInputDataBit) for GPIO_ReadInputDataBit
    softi2c.o(i.IIC_WaitAck) refers to hal_gpio.o(i.GPIO_ResetBits) for GPIO_ResetBits
    softi2c.o(i.IIC_WriteByteToSlave) refers to softi2c.o(i.IIC_Start) for IIC_Start
    softi2c.o(i.IIC_WriteByteToSlave) refers to softi2c.o(i.IIC_SendByte) for IIC_SendByte
    softi2c.o(i.IIC_WriteByteToSlave) refers to softi2c.o(i.IIC_WaitAck) for IIC_WaitAck
    softi2c.o(i.IIC_WriteByteToSlave) refers to softi2c.o(i.IIC_Stop) for IIC_Stop
    softi2c.o(i.IIC_WriteMultByteToSlave) refers to softi2c.o(i.IIC_Start) for IIC_Start
    softi2c.o(i.IIC_WriteMultByteToSlave) refers to softi2c.o(i.IIC_SendByte) for IIC_SendByte
    softi2c.o(i.IIC_WriteMultByteToSlave) refers to softi2c.o(i.IIC_WaitAck) for IIC_WaitAck
    softi2c.o(i.IIC_WriteMultByteToSlave) refers to softi2c.o(i.IIC_Stop) for IIC_Stop
    softi2c.o(i.MPU9250_SCL_Out) refers to hal_rcc.o(i.RCC_AHBPeriphClockCmd) for RCC_AHBPeriphClockCmd
    softi2c.o(i.MPU9250_SCL_Out) refers to hal_gpio.o(i.GPIO_Init) for GPIO_Init
    softi2c.o(i.MPU9250_SCL_Out) refers to softi2c.o(.data) for i2cGPIO_InitStructure
    softi2c.o(i.MPU9250_SDA_In) refers to hal_rcc.o(i.RCC_AHBPeriphClockCmd) for RCC_AHBPeriphClockCmd
    softi2c.o(i.MPU9250_SDA_In) refers to hal_gpio.o(i.GPIO_Init) for GPIO_Init
    softi2c.o(i.MPU9250_SDA_In) refers to softi2c.o(.data) for i2cGPIO_InitStructure
    softi2c.o(i.MPU9250_SDA_Out) refers to hal_rcc.o(i.RCC_AHBPeriphClockCmd) for RCC_AHBPeriphClockCmd
    softi2c.o(i.MPU9250_SDA_Out) refers to hal_gpio.o(i.GPIO_Init) for GPIO_Init
    softi2c.o(i.MPU9250_SDA_Out) refers to softi2c.o(.data) for i2cGPIO_InitStructure
    buzzerdriver.o(i.buzzerSetNewFrequency) refers to lludiv.o(.text) for __aeabi_uldivmod
    buzzerdriver.o(i.buzzerSetNewFrequency) refers to aeabi_sdiv.o(.text) for __aeabi_uidivmod
    buzzerdriver.o(i.buzzerSetNewFrequency) refers to buzzerdriver.o(.data) for music_volume
    buzzerdriver.o(i.music2Play) refers to buzzerdriver.o(i.buzzerSetNewFrequency) for buzzerSetNewFrequency
    buzzerdriver.o(i.music2Play) refers to sys.o(i.delayms) for delayms
    buzzerdriver.o(i.music2Play) refers to buzzerdriver.o(.data) for melody2
    buzzerdriver.o(i.music2Play) refers to buzzerdriver.o(.constdata) for melodySlowfactor
    buzzerdriver.o(i.music4Play) refers to buzzerdriver.o(i.buzzerDriverInit) for buzzerDriverInit
    buzzerdriver.o(i.music4Play) refers to buzzerdriver.o(i.buzzerSetNewFrequency) for buzzerSetNewFrequency
    buzzerdriver.o(i.music4Play) refers to aeabi_sdiv.o(.text) for __aeabi_uidivmod
    buzzerdriver.o(i.music4Play) refers to buzzerdriver.o(.data) for isInit
    buzzerdriver.o(i.music4Play) refers to buzzerdriver.o(.constdata) for melodySizes4
    buzzerdriver.o(i.musicPlay) refers to buzzerdriver.o(i.buzzerDriverInit) for buzzerDriverInit
    buzzerdriver.o(i.musicPlay) refers to aeabi_sdiv.o(.text) for __aeabi_uidivmod
    buzzerdriver.o(i.musicPlay) refers to buzzerdriver.o(i.buzzerSetNewFrequency) for buzzerSetNewFrequency
    buzzerdriver.o(i.musicPlay) refers to buzzerdriver.o(.data) for isInit
    buzzerdriver.o(i.musicPlay) refers to buzzerdriver.o(.constdata) for melodySizes
    buzzerdriver.o(.data) refers to buzzerdriver.o(.constdata) for marioMelody
    buzzerdriver.o(shellCommand) refers to buzzerdriver.o(.constdata) for shellCmdm2
    buzzerdriver.o(shellCommand) refers to buzzerdriver.o(i.music2Play) for music2Play
    i2c_mpu9250.o(i.MPU9250_Get_Accelerometer) refers to i2c_mpu9250.o(i.MPU9250_Read_Len) for MPU9250_Read_Len
    i2c_mpu9250.o(i.MPU9250_Get_Angle) refers to dflti.o(.text) for __aeabi_i2d
    i2c_mpu9250.o(i.MPU9250_Get_Angle) refers to sqrt.o(i.sqrt) for sqrt
    i2c_mpu9250.o(i.MPU9250_Get_Angle) refers to fflti.o(.text) for __aeabi_i2f
    i2c_mpu9250.o(i.MPU9250_Get_Angle) refers to f2d.o(.text) for __aeabi_f2d
    i2c_mpu9250.o(i.MPU9250_Get_Angle) refers to ddiv.o(.text) for __aeabi_ddiv
    i2c_mpu9250.o(i.MPU9250_Get_Angle) refers to atan.o(i.atan) for atan
    i2c_mpu9250.o(i.MPU9250_Get_Angle) refers to d2f.o(.text) for __aeabi_d2f
    i2c_mpu9250.o(i.MPU9250_Get_Angle) refers to fmul.o(x$fpl$fmul) for __aeabi_fmul
    i2c_mpu9250.o(i.MPU9250_Get_Gyroscope) refers to i2c_mpu9250.o(i.MPU9250_Read_Len) for MPU9250_Read_Len
    i2c_mpu9250.o(i.MPU9250_Get_Magnetometer) refers to i2c_mpu9250.o(i.MPU9250_Read_Len) for MPU9250_Read_Len
    i2c_mpu9250.o(i.MPU9250_Get_Magnetometer) refers to i2c_mpu9250.o(i.MPU9250_Read_Byte) for MPU9250_Read_Byte
    i2c_mpu9250.o(i.MPU9250_Get_Raw_data) refers to i2c_mpu9250.o(i.MPU9250_Read_Len) for MPU9250_Read_Len
    i2c_mpu9250.o(i.MPU9250_Get_Temperature) refers to i2c_mpu9250.o(i.MPU9250_Read_Len) for MPU9250_Read_Len
    i2c_mpu9250.o(i.MPU9250_Get_Temperature) refers to dflti.o(.text) for __aeabi_i2d
    i2c_mpu9250.o(i.MPU9250_Get_Temperature) refers to ddiv.o(.text) for __aeabi_ddiv
    i2c_mpu9250.o(i.MPU9250_Get_Temperature) refers to daddsub.o(.text) for __aeabi_dadd
    i2c_mpu9250.o(i.MPU9250_Get_Temperature) refers to d2f.o(.text) for __aeabi_d2f
    i2c_mpu9250.o(i.MPU9250_Get_Temperature) refers to ffixi.o(.text) for __aeabi_f2iz
    i2c_mpu9250.o(i.MPU9250_Init) refers to softi2c.o(i.IIC_Init) for IIC_Init
    i2c_mpu9250.o(i.MPU9250_Init) refers to i2c_mpu9250.o(i.MPU9250_Write_Byte) for MPU9250_Write_Byte
    i2c_mpu9250.o(i.MPU9250_Init) refers to i2c_mpu9250.o(i.delayms_mpu9250) for delayms_mpu9250
    i2c_mpu9250.o(i.MPU9250_Init) refers to i2c_mpu9250.o(i.MPU9250_Set_Gyro_Fsr) for MPU9250_Set_Gyro_Fsr
    i2c_mpu9250.o(i.MPU9250_Init) refers to i2c_mpu9250.o(i.MPU9250_Set_Accel_Fsr) for MPU9250_Set_Accel_Fsr
    i2c_mpu9250.o(i.MPU9250_Init) refers to i2c_mpu9250.o(i.MPU9250_Set_Rate) for MPU9250_Set_Rate
    i2c_mpu9250.o(i.MPU9250_Read_Byte) refers to softi2c.o(i.IIC_ReadByteFromSlave) for IIC_ReadByteFromSlave
    i2c_mpu9250.o(i.MPU9250_Read_Len) refers to softi2c.o(i.IIC_ReadMultByteFromSlave) for IIC_ReadMultByteFromSlave
    i2c_mpu9250.o(i.MPU9250_Set_Accel_Fsr) refers to i2c_mpu9250.o(i.MPU9250_Write_Byte) for MPU9250_Write_Byte
    i2c_mpu9250.o(i.MPU9250_Set_Gyro_Fsr) refers to i2c_mpu9250.o(i.MPU9250_Write_Byte) for MPU9250_Write_Byte
    i2c_mpu9250.o(i.MPU9250_Set_LPF) refers to i2c_mpu9250.o(i.MPU9250_Write_Byte) for MPU9250_Write_Byte
    i2c_mpu9250.o(i.MPU9250_Set_Rate) refers to aeabi_sdiv.o(.text) for __aeabi_idivmod
    i2c_mpu9250.o(i.MPU9250_Set_Rate) refers to i2c_mpu9250.o(i.MPU9250_Write_Byte) for MPU9250_Write_Byte
    i2c_mpu9250.o(i.MPU9250_Set_Rate) refers to i2c_mpu9250.o(i.MPU9250_Set_LPF) for MPU9250_Set_LPF
    i2c_mpu9250.o(i.MPU9250_Write_Byte) refers to softi2c.o(i.IIC_WriteByteToSlave) for IIC_WriteByteToSlave
    i2c_mpu9250.o(i.MPU9250_Write_Len) refers to softi2c.o(i.IIC_WriteMultByteToSlave) for IIC_WriteMultByteToSlave
    data_transfer.o(i.ANO_DT_Data_Exchange) refers to aeabi_sdiv.o(.text) for __aeabi_idivmod
    data_transfer.o(i.ANO_DT_Data_Exchange) refers to data_transfer.o(i.ANO_DT_Send_Version) for ANO_DT_Send_Version
    data_transfer.o(i.ANO_DT_Data_Exchange) refers to d2f.o(.text) for __aeabi_d2f
    data_transfer.o(i.ANO_DT_Data_Exchange) refers to data_transfer.o(i.ANO_DT_Send_Status) for ANO_DT_Send_Status
    data_transfer.o(i.ANO_DT_Data_Exchange) refers to ffixi.o(.text) for __aeabi_f2iz
    data_transfer.o(i.ANO_DT_Data_Exchange) refers to data_transfer.o(i.ANO_DT_Send_Senser) for ANO_DT_Send_Senser
    data_transfer.o(i.ANO_DT_Data_Exchange) refers to data_transfer.o(i.ANO_DT_Send_MotoPWM) for ANO_DT_Send_MotoPWM
    data_transfer.o(i.ANO_DT_Data_Exchange) refers to data_transfer.o(i.ANO_DT_Send_PID) for ANO_DT_Send_PID
    data_transfer.o(i.ANO_DT_Data_Exchange) refers to data_transfer.o(.data) for senser_cnt
    data_transfer.o(i.ANO_DT_Data_Exchange) refers to data_transfer.o(.bss) for f
    data_transfer.o(i.ANO_DT_Data_Exchange) refers to speedcontrol.o(.data) for error
    data_transfer.o(i.ANO_DT_Data_Exchange) refers to angle.o(.data) for angle
    data_transfer.o(i.ANO_DT_Data_Exchange) refers to adc.o(.data) for adc_right
    data_transfer.o(i.ANO_DT_Data_Exchange) refers to angle.o(.bss) for mpu6050
    data_transfer.o(i.ANO_DT_Data_Exchange) refers to balance.o(.data) for motor2
    data_transfer.o(i.ANO_DT_Data_Exchange) refers to timer.o(.data) for pwm3
    data_transfer.o(i.ANO_DT_Data_Receive_Anl) refers to dflti.o(.text) for __aeabi_i2d
    data_transfer.o(i.ANO_DT_Data_Receive_Anl) refers to dmul.o(.text) for __aeabi_dmul
    data_transfer.o(i.ANO_DT_Data_Receive_Anl) refers to d2f.o(.text) for __aeabi_d2f
    data_transfer.o(i.ANO_DT_Data_Receive_Anl) refers to data_transfer.o(i.ANO_DT_Send_Check) for ANO_DT_Send_Check
    data_transfer.o(i.ANO_DT_Data_Receive_Anl) refers to angle.o(.bss) for mpu6050
    data_transfer.o(i.ANO_DT_Data_Receive_Anl) refers to data_transfer.o(.bss) for f
    data_transfer.o(i.ANO_DT_Data_Receive_Anl) refers to balance.o(.data) for Balance_Kp
    data_transfer.o(i.ANO_DT_Data_Receive_Prepare) refers to data_transfer.o(i.ANO_DT_Data_Receive_Anl) for ANO_DT_Data_Receive_Anl
    data_transfer.o(i.ANO_DT_Data_Receive_Prepare) refers to data_transfer.o(.data) for state
    data_transfer.o(i.ANO_DT_Data_Receive_Prepare) refers to data_transfer.o(.bss) for RxBuffer
    data_transfer.o(i.ANO_DT_Send_Check) refers to data_transfer.o(i.ANO_DT_Send_Data) for ANO_DT_Send_Data
    data_transfer.o(i.ANO_DT_Send_Check) refers to data_transfer.o(.bss) for data_to_send
    data_transfer.o(i.ANO_DT_Send_Data) refers to hal_uart.o(i.UART_SendData) for UART_SendData
    data_transfer.o(i.ANO_DT_Send_Data) refers to hal_uart.o(i.UART_GetFlagStatus) for UART_GetFlagStatus
    data_transfer.o(i.ANO_DT_Send_MotoPWM) refers to data_transfer.o(i.ANO_DT_Send_Data) for ANO_DT_Send_Data
    data_transfer.o(i.ANO_DT_Send_MotoPWM) refers to data_transfer.o(.bss) for data_to_send
    data_transfer.o(i.ANO_DT_Send_PID) refers to fmul.o(x$fpl$fmul) for __aeabi_fmul
    data_transfer.o(i.ANO_DT_Send_PID) refers to ffixi.o(.text) for __aeabi_f2iz
    data_transfer.o(i.ANO_DT_Send_PID) refers to data_transfer.o(i.ANO_DT_Send_Data) for ANO_DT_Send_Data
    data_transfer.o(i.ANO_DT_Send_PID) refers to data_transfer.o(.bss) for data_to_send
    data_transfer.o(i.ANO_DT_Send_Power) refers to data_transfer.o(i.ANO_DT_Send_Data) for ANO_DT_Send_Data
    data_transfer.o(i.ANO_DT_Send_Power) refers to data_transfer.o(.bss) for data_to_send
    data_transfer.o(i.ANO_DT_Send_RCData) refers to data_transfer.o(i.ANO_DT_Send_Data) for ANO_DT_Send_Data
    data_transfer.o(i.ANO_DT_Send_RCData) refers to data_transfer.o(.bss) for data_to_send
    data_transfer.o(i.ANO_DT_Send_Senser) refers to data_transfer.o(i.ANO_DT_Send_Data) for ANO_DT_Send_Data
    data_transfer.o(i.ANO_DT_Send_Senser) refers to data_transfer.o(.bss) for data_to_send
    data_transfer.o(i.ANO_DT_Send_Status) refers to fmul.o(x$fpl$fmul) for __aeabi_fmul
    data_transfer.o(i.ANO_DT_Send_Status) refers to ffixi.o(.text) for __aeabi_f2iz
    data_transfer.o(i.ANO_DT_Send_Status) refers to data_transfer.o(i.ANO_DT_Send_Data) for ANO_DT_Send_Data
    data_transfer.o(i.ANO_DT_Send_Status) refers to data_transfer.o(.bss) for data_to_send
    data_transfer.o(i.ANO_DT_Send_Version) refers to data_transfer.o(i.ANO_DT_Send_Data) for ANO_DT_Send_Data
    data_transfer.o(i.ANO_DT_Send_Version) refers to data_transfer.o(.bss) for data_to_send
    balance.o(i.angle_is_normal) refers to faddsub.o(x$fpl$fadd) for __aeabi_fadd
    balance.o(i.angle_is_normal) refers to frlef.o(x$fpl$frleqf) for __aeabi_cfrcmple
    balance.o(i.angle_is_normal) refers to faddsub.o(x$fpl$fsub) for __aeabi_fsub
    balance.o(i.angle_is_normal) refers to flef.o(x$fpl$fleqf) for __aeabi_cfcmple
    balance.o(i.angle_is_normal) refers to balance.o(.data) for ZHONGZHI
    balance.o(i.angle_is_normal) refers to angle.o(.data) for angle
    balance.o(i.balance) refers to dflti.o(.text) for __aeabi_i2d
    balance.o(i.balance) refers to dmul.o(.text) for __aeabi_dmul
    balance.o(i.balance) refers to dfixi.o(.text) for __aeabi_d2iz
    balance.o(i.balance) refers to daddsub.o(.text) for __aeabi_dadd
    balance.o(i.balance) refers to faddsub.o(x$fpl$fsub) for __aeabi_fsub
    balance.o(i.balance) refers to fflti.o(.text) for __aeabi_i2f
    balance.o(i.balance) refers to fmul.o(x$fpl$fmul) for __aeabi_fmul
    balance.o(i.balance) refers to faddsub.o(x$fpl$fadd) for __aeabi_fadd
    balance.o(i.balance) refers to ffixi.o(.text) for __aeabi_f2iz
    balance.o(i.balance) refers to balance.o(.data) for gyro
    balance.o(i.balance) refers to angle.o(.bss) for mpu6050
    balance.o(i.balance) refers to angle.o(.data) for Angle_Balance
    balance.o(i.set_pwm) refers to speedcontrol.o(i.Abs) for Abs
    balance.o(i.set_pwm) refers to motor.o(i.motor_run) for motor_run
    balance.o(i.set_pwm) refers to balance.o(.data) for motor1
    balance.o(i.set_pwm) refers to speedcontrol.o(.data) for left_diretion
    balance.o(i.turn) refers to fflti.o(.text) for __aeabi_i2f
    balance.o(i.turn) refers to fmul.o(x$fpl$fmul) for __aeabi_fmul
    balance.o(i.turn) refers to f2d.o(.text) for __aeabi_f2d
    balance.o(i.turn) refers to dmul.o(.text) for __aeabi_dmul
    balance.o(i.turn) refers to daddsub.o(.text) for __aeabi_dadd
    balance.o(i.turn) refers to d2f.o(.text) for __aeabi_d2f
    balance.o(i.turn) refers to ffixi.o(.text) for __aeabi_f2iz
    balance.o(i.turn) refers to angle.o(.bss) for mpu6050
    balance.o(i.turn) refers to balance.o(.data) for Kd
    balance.o(i.turn) refers to speedcontrol.o(.data) for error
    balance.o(i.velocity) refers to fflti.o(.text) for __aeabi_i2f
    balance.o(i.velocity) refers to f2d.o(.text) for __aeabi_f2d
    balance.o(i.velocity) refers to dmul.o(.text) for __aeabi_dmul
    balance.o(i.velocity) refers to d2f.o(.text) for __aeabi_d2f
    balance.o(i.velocity) refers to daddsub.o(.text) for __aeabi_dadd
    balance.o(i.velocity) refers to faddsub.o(x$fpl$fadd) for __aeabi_fadd
    balance.o(i.velocity) refers to faddsub.o(x$fpl$fsub) for __aeabi_fsub
    balance.o(i.velocity) refers to frlef.o(x$fpl$frleqf) for __aeabi_cfrcmple
    balance.o(i.velocity) refers to flef.o(x$fpl$fleqf) for __aeabi_cfcmple
    balance.o(i.velocity) refers to fmul.o(x$fpl$fmul) for __aeabi_fmul
    balance.o(i.velocity) refers to ffixi.o(.text) for __aeabi_f2iz
    balance.o(i.velocity) refers to balance.o(.data) for maxueyang_speed
    hellodata.o(i.HelloData_Send_Data) refers to hal_uart.o(i.UART_SendData) for UART_SendData
    hellodata.o(i.HelloData_Send_Data) refers to hal_uart.o(i.UART_GetFlagStatus) for UART_GetFlagStatus
    hellodata.o(i.aba) refers to hellodata.o(.bss) for ab
    hellodata.o(i.aba) refers to hellodata.o(.data) for ab_index
    hellodata.o(i.cleara) refers to hellodata.o(.bss) for a
    hellodata.o(i.cleara) refers to hellodata.o(.data) for a_index
    hellodata.o(i.clearab) refers to hellodata.o(.bss) for ab
    hellodata.o(i.clearab) refers to hellodata.o(.data) for ab_count
    hellodata.o(i.filla) refers to ffixui.o(.text) for __aeabi_f2uiz
    hellodata.o(i.filla) refers to hellodata.o(.data) for count
    hellodata.o(i.filla) refers to hellodata.o(.bss) for a
    hellodata.o(i.fillab) refers to ffixui.o(.text) for __aeabi_f2uiz
    hellodata.o(i.fillab) refers to hellodata.o(.data) for count
    hellodata.o(i.fillab) refers to hellodata.o(.bss) for ab
    hellodata.o(i.getcount) refers to faddsub.o(x$fpl$fadd) for __aeabi_fadd
    hellodata.o(i.getcount) refers to hellodata.o(.data) for count
    hellodata.o(i.hello) refers to aeabi_sdiv.o(.text) for __aeabi_uidivmod
    hellodata.o(i.hello) refers to fflti.o(.text) for __aeabi_ui2f
    hellodata.o(i.hello) refers to hellodata.o(i.judgeNormal) for judgeNormal
    hellodata.o(i.hello) refers to hellodata.o(i.clearab) for clearab
    hellodata.o(i.hello) refers to hellodata.o(i.filla) for filla
    hellodata.o(i.hello) refers to hellodata.o(i.fillab) for fillab
    hellodata.o(i.hello) refers to hellodata.o(i.cleara) for cleara
    hellodata.o(i.hello) refers to hellodata.o(i.aba) for aba
    hellodata.o(i.hello) refers to hellodata.o(.data) for first
    hellodata.o(i.hello) refers to hellodata.o(.bss) for a
    hellodata.o(i.judgeNormal) refers to fdiv.o(.text) for __aeabi_fdiv
    hellodata.o(i.judgeNormal) refers to flef.o(x$fpl$fleqf) for __aeabi_cfcmple
    hellodata.o(i.judgeNormal) refers to fmul.o(x$fpl$fmul) for __aeabi_fmul
    hellodata.o(i.judgeNormal) refers to frlef.o(x$fpl$frleqf) for __aeabi_cfrcmple
    hellodata.o(i.judgeNormal) refers to hellodata.o(.data) for hello_aver
    control_task.o(i.judgeOandY) refers to faddsub.o(x$fpl$fadd) for __aeabi_fadd
    control_task.o(i.judgeOandY) refers to ffixi.o(.text) for __aeabi_f2iz
    control_task.o(i.judgeOandY) refers to fflti.o(.text) for __aeabi_i2f
    control_task.o(i.judgeOandY) refers to fdiv.o(.text) for __aeabi_fdiv
    control_task.o(i.judgeOandY) refers to f2d.o(.text) for __aeabi_f2d
    control_task.o(i.judgeOandY) refers to drlef.o(x$fpl$drleqf) for __aeabi_cdrcmple
    control_task.o(i.judgeOandY) refers to dlef.o(x$fpl$dleqf) for __aeabi_cdcmple
    control_task.o(i.judgeOandY) refers to adc.o(.data) for adc_right
    control_task.o(i.judgeOandY) refers to control_task.o(.data) for adc_normal
    shell.o(i.shellAdd) refers to shell.o(.bss) for shellList
    shell.o(i.shellBackspace) refers to shell.o(i.shellDeleteByte) for shellDeleteByte
    shell.o(i.shellCheckPassword) refers to strcmp.o(.text) for strcmp
    shell.o(i.shellCheckPassword) refers to shell.o(i.shellWriteString) for shellWriteString
    shell.o(i.shellCheckPassword) refers to shell.o(.data) for shellText
    shell.o(i.shellClear) refers to shell.o(i.shellGetCurrent) for shellGetCurrent
    shell.o(i.shellClear) refers to shell.o(i.shellWriteString) for shellWriteString
    shell.o(i.shellClear) refers to shell.o(.data) for shellText
    shell.o(i.shellClearCommandLine) refers to shell.o(i.shellWriteByte) for shellWriteByte
    shell.o(i.shellClearCommandLine) refers to shell.o(i.shellDeleteCommandLine) for shellDeleteCommandLine
    shell.o(i.shellCmds) refers to shell.o(i.shellGetCurrent) for shellGetCurrent
    shell.o(i.shellCmds) refers to shell.o(i.shellListCommand) for shellListCommand
    shell.o(i.shellDelete) refers to shell.o(i.shellDeleteByte) for shellDeleteByte
    shell.o(i.shellDeleteByte) refers to shell.o(i.shellDeleteCommandLine) for shellDeleteCommandLine
    shell.o(i.shellDeleteByte) refers to shell.o(i.shellWriteByte) for shellWriteByte
    shell.o(i.shellDeleteCommandLine) refers to shell.o(i.shellWriteString) for shellWriteString
    shell.o(i.shellDown) refers to shell.o(i.shellHistory) for shellHistory
    shell.o(i.shellEnter) refers to shell.o(i.shellExec) for shellExec
    shell.o(i.shellEnter) refers to shell.o(i.shellWriteCommandLine) for shellWriteCommandLine
    shell.o(i.shellExec) refers to shell.o(i.shellHistoryAdd) for shellHistoryAdd
    shell.o(i.shellExec) refers to shell.o(i.shellParserParam) for shellParserParam
    shell.o(i.shellExec) refers to shell.o(i.shellWriteString) for shellWriteString
    shell.o(i.shellExec) refers to shell.o(i.shellSeekCommand) for shellSeekCommand
    shell.o(i.shellExec) refers to shell.o(i.shellRunCommand) for shellRunCommand
    shell.o(i.shellExec) refers to shell.o(i.shellCheckPassword) for shellCheckPassword
    shell.o(i.shellExec) refers to shell.o(.data) for shellText
    shell.o(i.shellGetCommandName) refers to shell.o(i.shellToHex) for shellToHex
    shell.o(i.shellGetCommandName) refers to shell.o(.bss) for buffer
    shell.o(i.shellGetCurrent) refers to shell.o(.bss) for shellList
    shell.o(i.shellGetVarValue) refers to adc.o(i.__ARM_common_switch8) for __ARM_common_switch8
    shell.o(i.shellHandler) refers to shell.o(i.shellCheckPermission) for shellCheckPermission
    shell.o(i.shellHandler) refers to shell.o(i.shellNormalInput) for shellNormalInput
    shell.o(i.shellHelp) refers to shell.o(i.shellGetCurrent) for shellGetCurrent
    shell.o(i.shellHelp) refers to shell.o(i.shellListAll) for shellListAll
    shell.o(i.shellHelp) refers to shell.o(i.shellSeekCommand) for shellSeekCommand
    shell.o(i.shellHelp) refers to shell.o(i.shellWriteString) for shellWriteString
    shell.o(i.shellHelp) refers to shell.o(i.shellGetCommandName) for shellGetCommandName
    shell.o(i.shellHelp) refers to shell.o(i.shellGetCommandDesc) for shellGetCommandDesc
    shell.o(i.shellHelp) refers to shell.o(.data) for shellText
    shell.o(i.shellHistory) refers to shell.o(i.shellClearCommandLine) for shellClearCommandLine
    shell.o(i.shellHistory) refers to aeabi_sdiv.o(.text) for __aeabi_idivmod
    shell.o(i.shellHistory) refers to shell.o(i.shellStringCopy) for shellStringCopy
    shell.o(i.shellHistory) refers to shell.o(i.shellWriteString) for shellWriteString
    shell.o(i.shellHistoryAdd) refers to strcmp.o(.text) for strcmp
    shell.o(i.shellHistoryAdd) refers to shell.o(i.shellStringCopy) for shellStringCopy
    shell.o(i.shellInit) refers to aeabi_sdiv.o(.text) for __aeabi_idivmod
    shell.o(i.shellInit) refers to shell.o(i.shellAdd) for shellAdd
    shell.o(i.shellInit) refers to shell.o(i.shellSeekCommand) for shellSeekCommand
    shell.o(i.shellInit) refers to shell.o(i.shellSetUser) for shellSetUser
    shell.o(i.shellInit) refers to shell.o(i.shellWriteCommandLine) for shellWriteCommandLine
    shell.o(i.shellInsertByte) refers to shell.o(i.shellWriteString) for shellWriteString
    shell.o(i.shellInsertByte) refers to shell.o(i.shellWriteCommandLine) for shellWriteCommandLine
    shell.o(i.shellInsertByte) refers to shell.o(i.shellWriteByte) for shellWriteByte
    shell.o(i.shellInsertByte) refers to shell.o(.data) for shellText
    shell.o(i.shellKeys) refers to shell.o(i.shellGetCurrent) for shellGetCurrent
    shell.o(i.shellKeys) refers to shell.o(i.shellListKey) for shellListKey
    shell.o(i.shellLeft) refers to shell.o(i.shellWriteByte) for shellWriteByte
    shell.o(i.shellListAll) refers to shell.o(i.shellListCommand) for shellListCommand
    shell.o(i.shellListCommand) refers to shell.o(i.shellWriteString) for shellWriteString
    shell.o(i.shellListCommand) refers to shell.o(i.shellCheckPermission) for shellCheckPermission
    shell.o(i.shellListCommand) refers to shell.o(i.shellListItem) for shellListItem
    shell.o(i.shellListCommand) refers to shell.o(.data) for shellText
    shell.o(i.shellListItem) refers to shell.o(i.shellGetCommandName) for shellGetCommandName
    shell.o(i.shellListItem) refers to shell.o(i.shellWriteString) for shellWriteString
    shell.o(i.shellListItem) refers to shell.o(i.shellWriteByte) for shellWriteByte
    shell.o(i.shellListItem) refers to shell.o(i.shellGetCommandDesc) for shellGetCommandDesc
    shell.o(i.shellListItem) refers to shell.o(i.shellWriteCommandDesc) for shellWriteCommandDesc
    shell.o(i.shellListItem) refers to shell.o(.data) for shellText
    shell.o(i.shellListKey) refers to shell.o(i.shellWriteString) for shellWriteString
    shell.o(i.shellListKey) refers to shell.o(i.shellCheckPermission) for shellCheckPermission
    shell.o(i.shellListKey) refers to shell.o(i.shellListItem) for shellListItem
    shell.o(i.shellListKey) refers to shell.o(.data) for shellText
    shell.o(i.shellListUser) refers to shell.o(i.shellWriteString) for shellWriteString
    shell.o(i.shellListUser) refers to shell.o(i.shellCheckPermission) for shellCheckPermission
    shell.o(i.shellListUser) refers to shell.o(i.shellListItem) for shellListItem
    shell.o(i.shellListUser) refers to shell.o(.data) for shellText
    shell.o(i.shellListVar) refers to shell.o(i.shellWriteString) for shellWriteString
    shell.o(i.shellListVar) refers to shell.o(i.shellCheckPermission) for shellCheckPermission
    shell.o(i.shellListVar) refers to shell.o(i.shellListItem) for shellListItem
    shell.o(i.shellListVar) refers to shell.o(.data) for shellText
    shell.o(i.shellNormalInput) refers to shell.o(i.shellInsertByte) for shellInsertByte
    shell.o(i.shellPrint) refers to vsnprintf.o(.text) for vsnprintf
    shell.o(i.shellPrint) refers to shell.o(i.shellWriteString) for shellWriteString
    shell.o(i.shellRemoveParamQuotes) refers to strlen.o(.text) for strlen
    shell.o(i.shellRight) refers to shell.o(i.shellWriteByte) for shellWriteByte
    shell.o(i.shellRun) refers to strlen.o(.text) for strlen
    shell.o(i.shellRun) refers to shell.o(i.shellWriteString) for shellWriteString
    shell.o(i.shellRun) refers to shell.o(i.shellStringCopy) for shellStringCopy
    shell.o(i.shellRun) refers to shell.o(i.shellExec) for shellExec
    shell.o(i.shellRun) refers to shell.o(.data) for shellText
    shell.o(i.shellRunCommand) refers to shell.o(i.shellRemoveParamQuotes) for shellRemoveParamQuotes
    shell.o(i.shellRunCommand) refers to shell.o(i.shellWriteReturnValue) for shellWriteReturnValue
    shell.o(i.shellRunCommand) refers to shell_ext.o(i.shellExtRun) for shellExtRun
    shell.o(i.shellRunCommand) refers to shell.o(i.shellShowVar) for shellShowVar
    shell.o(i.shellRunCommand) refers to shell.o(i.shellSetUser) for shellSetUser
    shell.o(i.shellSeekCommand) refers to shell.o(i.shellCheckPermission) for shellCheckPermission
    shell.o(i.shellSeekCommand) refers to shell.o(i.shellGetCommandName) for shellGetCommandName
    shell.o(i.shellSeekCommand) refers to strcmp.o(.text) for strcmp
    shell.o(i.shellSeekCommand) refers to strncmp.o(.text) for strncmp
    shell.o(i.shellSetUser) refers to strlen.o(.text) for strlen
    shell.o(i.shellSetUser) refers to strcmp.o(.text) for strcmp
    shell.o(i.shellSetUser) refers to shell.o(i.shellWriteString) for shellWriteString
    shell.o(i.shellSetUser) refers to shell.o(.data) for shellText
    shell.o(i.shellSetVar) refers to shell.o(i.shellGetCurrent) for shellGetCurrent
    shell.o(i.shellSetVar) refers to shell.o(i.shellSeekCommand) for shellSeekCommand
    shell.o(i.shellSetVar) refers to shell.o(i.shellWriteString) for shellWriteString
    shell.o(i.shellSetVar) refers to shell.o(i.shellSetVarValue) for shellSetVarValue
    shell.o(i.shellSetVar) refers to shell.o(.data) for shellText
    shell.o(i.shellSetVarValue) refers to shell.o(i.shellWriteString) for shellWriteString
    shell.o(i.shellSetVarValue) refers to adc.o(i.__ARM_common_switch8) for __ARM_common_switch8
    shell.o(i.shellSetVarValue) refers to shell.o(i.shellStringCopy) for shellStringCopy
    shell.o(i.shellSetVarValue) refers to shell.o(i.shellShowVar) for shellShowVar
    shell.o(i.shellSetVarValue) refers to shell.o(.data) for shellText
    shell.o(i.shellShowVar) refers to shell.o(i.shellGetVarValue) for shellGetVarValue
    shell.o(i.shellShowVar) refers to shell.o(i.shellWriteString) for shellWriteString
    shell.o(i.shellShowVar) refers to shell.o(i.shellToDec) for shellToDec
    shell.o(i.shellShowVar) refers to shell.o(i.shellToHex) for shellToHex
    shell.o(i.shellTab) refers to shell.o(i.shellListAll) for shellListAll
    shell.o(i.shellTab) refers to shell.o(i.shellWriteCommandLine) for shellWriteCommandLine
    shell.o(i.shellTab) refers to shell.o(i.shellCheckPermission) for shellCheckPermission
    shell.o(i.shellTab) refers to shell.o(i.shellGetCommandName) for shellGetCommandName
    shell.o(i.shellTab) refers to shell.o(i.shellStringCompare) for shellStringCompare
    shell.o(i.shellTab) refers to shell.o(i.shellWriteString) for shellWriteString
    shell.o(i.shellTab) refers to shell.o(i.shellListItem) for shellListItem
    shell.o(i.shellTab) refers to shell.o(i.shellClearCommandLine) for shellClearCommandLine
    shell.o(i.shellTab) refers to shell.o(i.shellStringCopy) for shellStringCopy
    shell.o(i.shellTask) refers to shell.o(i.shellHandler) for shellHandler
    shell.o(i.shellToDec) refers to aeabi_sdiv.o(.text) for __aeabi_idivmod
    shell.o(i.shellUp) refers to shell.o(i.shellHistory) for shellHistory
    shell.o(i.shellUsers) refers to shell.o(i.shellGetCurrent) for shellGetCurrent
    shell.o(i.shellUsers) refers to shell.o(i.shellListUser) for shellListUser
    shell.o(i.shellVars) refers to shell.o(i.shellGetCurrent) for shellGetCurrent
    shell.o(i.shellVars) refers to shell.o(i.shellListVar) for shellListVar
    shell.o(i.shellWriteCommandLine) refers to shell.o(i.shellWriteString) for shellWriteString
    shell.o(i.shellWriteCommandLine) refers to shell.o(.data) for shellText
    shell.o(i.shellWriteReturnValue) refers to shell.o(i.shellWriteString) for shellWriteString
    shell.o(i.shellWriteReturnValue) refers to shell.o(i.shellToDec) for shellToDec
    shell.o(i.shellWriteReturnValue) refers to shell.o(i.shellToHex) for shellToHex
    shell.o(.data) refers to shell.o(.conststring) for .conststring
    shell.o(shellCommand) refers to shell.o(.constdata) for shellCmdDefaultUser
    shell.o(shellCommand) refers to shell.o(i.shellSetVar) for shellSetVar
    shell.o(shellCommand) refers to shell.o(i.shellUp) for shellUp
    shell.o(shellCommand) refers to shell.o(i.shellDown) for shellDown
    shell.o(shellCommand) refers to shell.o(i.shellRight) for shellRight
    shell.o(shellCommand) refers to shell.o(i.shellLeft) for shellLeft
    shell.o(shellCommand) refers to shell.o(i.shellTab) for shellTab
    shell.o(shellCommand) refers to shell.o(i.shellBackspace) for shellBackspace
    shell.o(shellCommand) refers to shell.o(i.shellDelete) for shellDelete
    shell.o(shellCommand) refers to shell.o(i.shellEnter) for shellEnter
    shell.o(shellCommand) refers to shell.o(i.shellHelp) for shellHelp
    shell.o(shellCommand) refers to shell.o(i.shellUsers) for shellUsers
    shell.o(shellCommand) refers to shell.o(i.shellCmds) for shellCmds
    shell.o(shellCommand) refers to shell.o(i.shellVars) for shellVars
    shell.o(shellCommand) refers to shell.o(i.shellKeys) for shellKeys
    shell.o(shellCommand) refers to shell.o(i.shellClear) for shellClear
    shell_ext.o(i.shellExtParseNumber) refers to shell_ext.o(i.shellExtNumType) for shellExtNumType
    shell_ext.o(i.shellExtParseNumber) refers to shell_ext.o(i.shellExtToNum) for shellExtToNum
    shell_ext.o(i.shellExtParseNumber) refers to fflti.o(.text) for __aeabi_i2f
    shell_ext.o(i.shellExtParseNumber) refers to fdiv.o(.text) for __aeabi_fdiv
    shell_ext.o(i.shellExtParseNumber) refers to fmul.o(x$fpl$fmul) for __aeabi_fmul
    shell_ext.o(i.shellExtParsePara) refers to shell_ext.o(i.shellExtParseChar) for shellExtParseChar
    shell_ext.o(i.shellExtParsePara) refers to shell_ext.o(i.shellExtParseNumber) for shellExtParseNumber
    shell_ext.o(i.shellExtParsePara) refers to shell_ext.o(i.shellExtParseVar) for shellExtParseVar
    shell_ext.o(i.shellExtParsePara) refers to shell_ext.o(i.shellExtParseString) for shellExtParseString
    shell_ext.o(i.shellExtParseString) refers to shell_ext.o(i.shellExtParseChar) for shellExtParseChar
    shell_ext.o(i.shellExtParseVar) refers to shell.o(i.shellSeekCommand) for shellSeekCommand
    shell_ext.o(i.shellExtParseVar) refers to shell.o(i.shellGetVarValue) for shellGetVarValue
    shell_ext.o(i.shellExtRun) refers to rt_memclr.o(.text) for __aeabi_memclr4
    shell_ext.o(i.shellExtRun) refers to shell_ext.o(i.shellExtParsePara) for shellExtParsePara
    shell_ext.o(i.shellExtRun) refers to adc.o(i.__ARM_common_switch8) for __ARM_common_switch8
    shell_port.o(i.User_Shell_Init) refers to shell.o(i.shellInit) for shellInit
    shell_port.o(i.User_Shell_Init) refers to shell_port.o(i.User_Shell_Write) for User_Shell_Write
    shell_port.o(i.User_Shell_Init) refers to shell_port.o(.bss) for shell
    shell_port.o(i.User_Shell_Write) refers to hal_uart.o(i.UART_SendData) for UART_SendData
    shell_port.o(i.User_Shell_Write) refers to hal_uart.o(i.UART_GetFlagStatus) for UART_GetFlagStatus
    multi_button.o(i.button_handler) refers to adc.o(i.__ARM_common_switch8) for __ARM_common_switch8
    multi_button.o(i.button_init) refers to rt_memclr.o(.text) for __aeabi_memclr4
    multi_button.o(i.button_start) refers to multi_button.o(.data) for head_handle
    multi_button.o(i.button_stop) refers to multi_button.o(.data) for head_handle
    multi_button.o(i.button_ticks) refers to multi_button.o(i.button_handler) for button_handler
    multi_button.o(i.button_ticks) refers to multi_button.o(.data) for head_handle
    my_multi_button.o(i.BTN1_DOUBLE_Click_Handler) refers to timer.o(.data) for if_music1
    my_multi_button.o(i.BTN1_LONG_PRESS_HOLD_Handler) refers to aeabi_sdiv.o(.text) for __aeabi_idivmod
    my_multi_button.o(i.BTN1_LONG_PRESS_HOLD_Handler) refers to my_multi_button.o(.data) for slow_factor
    my_multi_button.o(i.BTN1_LONG_PRESS_HOLD_Handler) refers to buzzerdriver.o(.data) for music_volume
    my_multi_button.o(i.BTN1_LONG_PRESS_HOLD_Handler) refers to timer.o(.data) for buzzer_flag
    my_multi_button.o(i.BTN1_SINGLE_Click_Handler) refers to timer.o(.data) for buzzer_flag
    my_multi_button.o(i.BTN1_SINGLE_Click_Handler) refers to gpio.o(.data) for if_key
    my_multi_button.o(i.BTN2_DOUBLE_Click_Handler) refers to timer.o(.data) for if_music2
    my_multi_button.o(i.BTN2_LONG_PRESS_HOLD_Handler) refers to aeabi_sdiv.o(.text) for __aeabi_idivmod
    my_multi_button.o(i.BTN2_LONG_PRESS_HOLD_Handler) refers to my_multi_button.o(.data) for slow_factor
    my_multi_button.o(i.BTN2_LONG_PRESS_HOLD_Handler) refers to buzzerdriver.o(.data) for music_volume
    my_multi_button.o(i.BTN2_LONG_PRESS_HOLD_Handler) refers to timer.o(.data) for buzzer_flag
    my_multi_button.o(i.BTN2_SINGLE_Click_Handler) refers to timer.o(.data) for buzzer_flag
    my_multi_button.o(i.BTN2_SINGLE_Click_Handler) refers to gpio.o(.data) for if_key
    my_multi_button.o(i.my_button_init) refers to multi_button.o(i.button_init) for button_init
    my_multi_button.o(i.my_button_init) refers to multi_button.o(i.button_attach) for button_attach
    my_multi_button.o(i.my_button_init) refers to multi_button.o(i.button_start) for button_start
    my_multi_button.o(i.my_button_init) refers to my_multi_button.o(i.read_button1_GPIO) for read_button1_GPIO
    my_multi_button.o(i.my_button_init) refers to my_multi_button.o(.bss) for button1
    my_multi_button.o(i.my_button_init) refers to my_multi_button.o(i.read_button2_GPIO) for read_button2_GPIO
    my_multi_button.o(i.my_button_init) refers to my_multi_button.o(i.BTN1_SINGLE_Click_Handler) for BTN1_SINGLE_Click_Handler
    my_multi_button.o(i.my_button_init) refers to my_multi_button.o(i.BTN1_DOUBLE_Click_Handler) for BTN1_DOUBLE_Click_Handler
    my_multi_button.o(i.my_button_init) refers to my_multi_button.o(i.BTN1_LONG_PRESS_HOLD_Handler) for BTN1_LONG_PRESS_HOLD_Handler
    my_multi_button.o(i.my_button_init) refers to my_multi_button.o(i.BTN2_SINGLE_Click_Handler) for BTN2_SINGLE_Click_Handler
    my_multi_button.o(i.my_button_init) refers to my_multi_button.o(i.BTN2_DOUBLE_Click_Handler) for BTN2_DOUBLE_Click_Handler
    my_multi_button.o(i.my_button_init) refers to my_multi_button.o(i.BTN2_LONG_PRESS_HOLD_Handler) for BTN2_LONG_PRESS_HOLD_Handler
    my_multi_button.o(i.read_button1_GPIO) refers to hal_gpio.o(i.GPIO_ReadInputDataBit) for GPIO_ReadInputDataBit
    my_multi_button.o(i.read_button2_GPIO) refers to hal_gpio.o(i.GPIO_ReadInputDataBit) for GPIO_ReadInputDataBit
    vsnprintf.o(.text) refers (Special) to _printf_a.o(.ARM.Collect$$_printf_percent$$00000006) for _printf_a
    vsnprintf.o(.text) refers (Special) to _printf_c.o(.ARM.Collect$$_printf_percent$$00000013) for _printf_c
    vsnprintf.o(.text) refers (Special) to _printf_charcount.o(.text) for _printf_charcount
    vsnprintf.o(.text) refers (Special) to _printf_d.o(.ARM.Collect$$_printf_percent$$00000009) for _printf_d
    vsnprintf.o(.text) refers (Special) to _printf_e.o(.ARM.Collect$$_printf_percent$$00000004) for _printf_e
    vsnprintf.o(.text) refers (Special) to _printf_f.o(.ARM.Collect$$_printf_percent$$00000003) for _printf_f
    vsnprintf.o(.text) refers (Special) to printf1.o(x$fpl$printf1) for _printf_fp_dec
    vsnprintf.o(.text) refers (Special) to printf2.o(x$fpl$printf2) for _printf_fp_hex
    vsnprintf.o(.text) refers (Special) to _printf_g.o(.ARM.Collect$$_printf_percent$$00000005) for _printf_g
    vsnprintf.o(.text) refers (Special) to _printf_i.o(.ARM.Collect$$_printf_percent$$00000008) for _printf_i
    vsnprintf.o(.text) refers (Special) to _printf_dec.o(.text) for _printf_int_dec
    vsnprintf.o(.text) refers (Special) to _printf_l.o(.ARM.Collect$$_printf_percent$$00000012) for _printf_l
    vsnprintf.o(.text) refers (Special) to _printf_lc.o(.ARM.Collect$$_printf_percent$$00000015) for _printf_lc
    vsnprintf.o(.text) refers (Special) to _printf_ll.o(.ARM.Collect$$_printf_percent$$00000007) for _printf_ll
    vsnprintf.o(.text) refers (Special) to _printf_lld.o(.ARM.Collect$$_printf_percent$$0000000E) for _printf_lld
    vsnprintf.o(.text) refers (Special) to _printf_lli.o(.ARM.Collect$$_printf_percent$$0000000D) for _printf_lli
    vsnprintf.o(.text) refers (Special) to _printf_llo.o(.ARM.Collect$$_printf_percent$$00000010) for _printf_llo
    vsnprintf.o(.text) refers (Special) to _printf_llu.o(.ARM.Collect$$_printf_percent$$0000000F) for _printf_llu
    vsnprintf.o(.text) refers (Special) to _printf_llx.o(.ARM.Collect$$_printf_percent$$00000011) for _printf_llx
    vsnprintf.o(.text) refers (Special) to _printf_longlong_dec.o(.text) for _printf_longlong_dec
    vsnprintf.o(.text) refers (Special) to _printf_hex_int_ll_ptr.o(.text) for _printf_longlong_hex
    vsnprintf.o(.text) refers (Special) to _printf_oct_int_ll.o(.text) for _printf_longlong_oct
    vsnprintf.o(.text) refers (Special) to _printf_ls.o(.ARM.Collect$$_printf_percent$$00000016) for _printf_ls
    vsnprintf.o(.text) refers (Special) to _printf_n.o(.ARM.Collect$$_printf_percent$$00000001) for _printf_n
    vsnprintf.o(.text) refers (Special) to _printf_o.o(.ARM.Collect$$_printf_percent$$0000000B) for _printf_o
    vsnprintf.o(.text) refers (Special) to _printf_p.o(.ARM.Collect$$_printf_percent$$00000002) for _printf_p
    vsnprintf.o(.text) refers (Special) to _printf_percent.o(.ARM.Collect$$_printf_percent$$00000000) for _printf_percent
    vsnprintf.o(.text) refers (Special) to _printf_pad.o(.text) for _printf_post_padding
    vsnprintf.o(.text) refers (Special) to _printf_s.o(.ARM.Collect$$_printf_percent$$00000014) for _printf_s
    vsnprintf.o(.text) refers (Special) to _printf_str.o(.text) for _printf_str
    vsnprintf.o(.text) refers (Special) to _printf_truncate.o(.text) for _printf_truncate_signed
    vsnprintf.o(.text) refers (Special) to _printf_u.o(.ARM.Collect$$_printf_percent$$0000000A) for _printf_u
    vsnprintf.o(.text) refers (Special) to _printf_wctomb.o(.text) for _printf_wctomb
    vsnprintf.o(.text) refers (Special) to _printf_x.o(.ARM.Collect$$_printf_percent$$0000000C) for _printf_x
    vsnprintf.o(.text) refers to _printf_char_common.o(.text) for _printf_char_common
    vsnprintf.o(.text) refers to _sputc.o(.text) for _sputc
    vsnprintf.o(.text) refers to _snputc.o(.text) for _snputc
    __2sprintf.o(.text) refers to _printf_char_common.o(.text) for _printf_char_common
    __2sprintf.o(.text) refers to _sputc.o(.text) for _sputc
    noretval__2sprintf.o(.text) refers to _printf_char_common.o(.text) for _printf_char_common
    noretval__2sprintf.o(.text) refers to _sputc.o(.text) for _sputc
    __printf.o(.text) refers to _printf_percent.o(.ARM.Collect$$_printf_percent$$00000000) for _printf_percent
    _printf_dec.o(.text) refers (Weak) to _printf_truncate.o(.text) for _printf_truncate_signed
    _printf_dec.o(.text) refers (Weak) to _printf_truncate.o(.text) for _printf_truncate_unsigned
    _printf_dec.o(.text) refers to rtudiv10.o(.text) for __rt_udiv10
    _printf_dec.o(.text) refers to _printf_intcommon.o(.text) for _printf_int_common
    __printf_flags.o(.text) refers to _printf_percent.o(.ARM.Collect$$_printf_percent$$00000000) for _printf_percent
    __printf_flags.o(.text) refers to __printf_flags.o(.constdata) for .constdata
    __printf_ss.o(.text) refers to _printf_percent.o(.ARM.Collect$$_printf_percent$$00000000) for _printf_percent
    __printf_flags_ss.o(.text) refers to _printf_percent.o(.ARM.Collect$$_printf_percent$$00000000) for _printf_percent
    __printf_flags_ss.o(.text) refers to __printf_flags_ss.o(.constdata) for .constdata
    __printf_wp.o(.text) refers to __printf_wp.o(i._is_digit) for _is_digit
    __printf_wp.o(.text) refers to _printf_percent.o(.ARM.Collect$$_printf_percent$$00000000) for _printf_percent
    __printf_flags_wp.o(.text) refers to __printf_wp.o(i._is_digit) for _is_digit
    __printf_flags_wp.o(.text) refers to _printf_percent.o(.ARM.Collect$$_printf_percent$$00000000) for _printf_percent
    __printf_flags_wp.o(.text) refers to __printf_flags_wp.o(.constdata) for .constdata
    __printf_ss_wp.o(.text) refers to __printf_wp.o(i._is_digit) for _is_digit
    __printf_ss_wp.o(.text) refers to _printf_percent.o(.ARM.Collect$$_printf_percent$$00000000) for _printf_percent
    __printf_flags_ss_wp.o(.text) refers to __printf_wp.o(i._is_digit) for _is_digit
    __printf_flags_ss_wp.o(.text) refers to _printf_percent.o(.ARM.Collect$$_printf_percent$$00000000) for _printf_percent
    __printf_flags_ss_wp.o(.text) refers to __printf_flags_ss_wp.o(.constdata) for .constdata
    _printf_d.o(.ARM.Collect$$_printf_percent$$00000009) refers (Weak) to _printf_dec.o(.text) for _printf_int_dec
    _printf_f.o(.ARM.Collect$$_printf_percent$$00000003) refers (Weak) to printf1.o(x$fpl$printf1) for _printf_fp_dec
    _printf_percent.o(.ARM.Collect$$_printf_percent$$00000000) refers (Special) to _printf_percent_end.o(.ARM.Collect$$_printf_percent$$00000017) for _printf_percent_end
    __main.o(!!!main) refers to __rtentry.o(.ARM.Collect$$rtentry$$00000000) for __rt_entry
    d2f.o(.text) refers (Special) to usenofp.o(x$fpl$usenofp) for __I$use$fp
    daddsub.o(.text) refers (Special) to usenofp.o(x$fpl$usenofp) for __I$use$fp
    ddiv.o(.text) refers (Special) to usenofp.o(x$fpl$usenofp) for __I$use$fp
    ddiv.o(.text) refers to ddiv.o(.constdata) for .constdata
    ddiv.o(.constdata) refers (Special) to usenofp.o(x$fpl$usenofp) for __I$use$fp
    dfixi.o(.text) refers (Special) to usenofp.o(x$fpl$usenofp) for __I$use$fp
    dflti.o(.text) refers (Special) to usenofp.o(x$fpl$usenofp) for __I$use$fp
    dlef.o(x$fpl$dleqf) refers (Special) to usenofp.o(x$fpl$usenofp) for __I$use$fp
    dlef.o(x$fpl$dleqf) refers to dcmpin.o(.text) for __fpl_dcmp_InfNaN
    dmul.o(.text) refers (Special) to usenofp.o(x$fpl$usenofp) for __I$use$fp
    drlef.o(x$fpl$drleqf) refers (Special) to usenofp.o(x$fpl$usenofp) for __I$use$fp
    drlef.o(x$fpl$drleqf) refers to dcmpin.o(.text) for __fpl_dcmp_InfNaN
    f2d.o(.text) refers (Special) to usenofp.o(x$fpl$usenofp) for __I$use$fp
    faddsub.o(x$fpl$fadd) refers (Special) to usenofp.o(x$fpl$usenofp) for __I$use$fp
    faddsub.o(x$fpl$fadd) refers to faddsub.o(x$fpl$fsub) for _fsub1
    faddsub.o(x$fpl$frsb) refers (Special) to usenofp.o(x$fpl$usenofp) for __I$use$fp
    faddsub.o(x$fpl$frsb) refers to faddsub.o(x$fpl$fsub) for _fsub1
    faddsub.o(x$fpl$frsb) refers to faddsub.o(x$fpl$fadd) for _fadd1
    faddsub.o(x$fpl$fsub) refers (Special) to usenofp.o(x$fpl$usenofp) for __I$use$fp
    faddsub.o(x$fpl$fsub) refers to faddsub.o(x$fpl$fadd) for _fadd1
    fdiv.o(.text) refers (Special) to usenofp.o(x$fpl$usenofp) for __I$use$fp
    fdiv.o(.text) refers to fdiv.o(.constdata) for .constdata
    fdiv.o(.constdata) refers (Special) to usenofp.o(x$fpl$usenofp) for __I$use$fp
    ffixi.o(.text) refers (Special) to usenofp.o(x$fpl$usenofp) for __I$use$fp
    ffixui.o(.text) refers (Special) to usenofp.o(x$fpl$usenofp) for __I$use$fp
    fflti.o(.text) refers (Special) to usenofp.o(x$fpl$usenofp) for __I$use$fp
    flef.o(x$fpl$fleqf) refers (Special) to usenofp.o(x$fpl$usenofp) for __I$use$fp
    flef.o(x$fpl$fleqf) refers to fcmpin.o(.text) for __fpl_fcmp_InfNaN
    fmul.o(x$fpl$fmul) refers (Special) to usenofp.o(x$fpl$usenofp) for __I$use$fp
    frlef.o(x$fpl$frleqf) refers (Special) to usenofp.o(x$fpl$usenofp) for __I$use$fp
    frlef.o(x$fpl$frleqf) refers to fcmpin.o(.text) for __fpl_fcmp_InfNaN
    printf1.o(x$fpl$printf1) refers to _printf_fp_dec.o(.text) for _printf_fp_dec_real
    atan.o(i.__softfp_atan) refers (Special) to usenofp.o(x$fpl$usenofp) for __I$use$fp
    atan.o(i.__softfp_atan) refers to atan.o(i.atan) for atan
    atan.o(i.atan) refers (Special) to usenofp.o(x$fpl$usenofp) for __I$use$fp
    atan.o(i.atan) refers to dunder.o(i.__mathlib_dbl_infnan) for __mathlib_dbl_infnan
    atan.o(i.atan) refers to fpclassify.o(i.__ARM_fpclassify) for __ARM_fpclassify
    atan.o(i.atan) refers to dunder.o(i.__mathlib_dbl_underflow) for __mathlib_dbl_underflow
    atan.o(i.atan) refers to daddsub.o(.text) for __aeabi_dadd
    atan.o(i.atan) refers to dscalbn.o(.text) for __ARM_scalbn
    atan.o(i.atan) refers to ddiv.o(.text) for __aeabi_ddiv
    atan.o(i.atan) refers to dmul.o(.text) for __aeabi_dmul
    atan.o(i.atan) refers to poly.o(i.__kernel_poly) for __kernel_poly
    atan.o(i.atan) refers to atan.o(.constdata) for .constdata
    atan.o(.constdata) refers (Special) to usenofp.o(x$fpl$usenofp) for __I$use$fp
    atan_x.o(i.____softfp_atan$lsc) refers (Special) to usenofp.o(x$fpl$usenofp) for __I$use$fp
    atan_x.o(i.____softfp_atan$lsc) refers to atan_x.o(i.__atan$lsc) for __atan$lsc
    atan_x.o(i.__atan$lsc) refers (Special) to usenofp.o(x$fpl$usenofp) for __I$use$fp
    atan_x.o(i.__atan$lsc) refers to dunder.o(i.__mathlib_dbl_infnan) for __mathlib_dbl_infnan
    atan_x.o(i.__atan$lsc) refers to daddsub.o(.text) for __aeabi_dadd
    atan_x.o(i.__atan$lsc) refers to dscalbn.o(.text) for __ARM_scalbn
    atan_x.o(i.__atan$lsc) refers to ddiv.o(.text) for __aeabi_ddiv
    atan_x.o(i.__atan$lsc) refers to dmul.o(.text) for __aeabi_dmul
    atan_x.o(i.__atan$lsc) refers to poly.o(i.__kernel_poly) for __kernel_poly
    atan_x.o(i.__atan$lsc) refers to atan_x.o(.constdata) for .constdata
    atan_x.o(.constdata) refers (Special) to usenofp.o(x$fpl$usenofp) for __I$use$fp
    atan2.o(i.__softfp_atan2) refers (Special) to usenofp.o(x$fpl$usenofp) for __I$use$fp
    atan2.o(i.__softfp_atan2) refers to atan2.o(i.atan2) for atan2
    atan2.o(i.atan2) refers (Special) to usenofp.o(x$fpl$usenofp) for __I$use$fp
    atan2.o(i.atan2) refers to dunder.o(i.__mathlib_dbl_infnan2) for __mathlib_dbl_infnan2
    atan2.o(i.atan2) refers to atan.o(i.atan) for atan
    atan2.o(i.atan2) refers to ddiv.o(.text) for __aeabi_ddiv
    atan2.o(i.atan2) refers to daddsub.o(.text) for __aeabi_dsub
    atan2.o(i.atan2) refers to qnan.o(.constdata) for __mathlib_zero
    atan2_x.o(i.____softfp_atan2$lsc) refers (Special) to usenofp.o(x$fpl$usenofp) for __I$use$fp
    atan2_x.o(i.____softfp_atan2$lsc) refers to atan2_x.o(i.__atan2$lsc) for __atan2$lsc
    atan2_x.o(i.__atan2$lsc) refers (Special) to usenofp.o(x$fpl$usenofp) for __I$use$fp
    atan2_x.o(i.__atan2$lsc) refers to dunder.o(i.__mathlib_dbl_infnan2) for __mathlib_dbl_infnan2
    atan2_x.o(i.__atan2$lsc) refers to atan.o(i.atan) for atan
    atan2_x.o(i.__atan2$lsc) refers to _rserrno.o(.text) for __set_errno
    atan2_x.o(i.__atan2$lsc) refers to ddiv.o(.text) for __aeabi_ddiv
    atan2_x.o(i.__atan2$lsc) refers to daddsub.o(.text) for __aeabi_dsub
    atan2_x.o(i.__atan2$lsc) refers to qnan.o(.constdata) for __mathlib_zero
    sqrt.o(i.__softfp_sqrt) refers (Special) to usenofp.o(x$fpl$usenofp) for __I$use$fp
    sqrt.o(i.__softfp_sqrt) refers to dsqrt.o(.text) for _dsqrt
    sqrt.o(i.__softfp_sqrt) refers to _rserrno.o(.text) for __set_errno
    sqrt.o(i.sqrt) refers (Special) to usenofp.o(x$fpl$usenofp) for __I$use$fp
    sqrt.o(i.sqrt) refers to dsqrt.o(.text) for _dsqrt
    sqrt.o(i.sqrt) refers to _rserrno.o(.text) for __set_errno
    sqrt_x.o(i.____softfp_sqrt$lsc) refers (Special) to usenofp.o(x$fpl$usenofp) for __I$use$fp
    sqrt_x.o(i.____softfp_sqrt$lsc) refers to dlef.o(x$fpl$dleqf) for __aeabi_cdcmple
    sqrt_x.o(i.____softfp_sqrt$lsc) refers to _rserrno.o(.text) for __set_errno
    sqrt_x.o(i.____softfp_sqrt$lsc) refers to dsqrt.o(.text) for _dsqrt
    sqrt_x.o(i.__sqrt$lsc) refers (Special) to usenofp.o(x$fpl$usenofp) for __I$use$fp
    sqrt_x.o(i.__sqrt$lsc) refers to dlef.o(x$fpl$dleqf) for __aeabi_cdcmple
    sqrt_x.o(i.__sqrt$lsc) refers to _rserrno.o(.text) for __set_errno
    sqrt_x.o(i.__sqrt$lsc) refers to dsqrt.o(.text) for _dsqrt
    __rtentry.o(.ARM.Collect$$rtentry$$00000000) refers (Special) to __rtentry2.o(.ARM.Collect$$rtentry$$0000000A) for __rt_entry_li
    __rtentry.o(.ARM.Collect$$rtentry$$00000000) refers (Special) to __rtentry2.o(.ARM.Collect$$rtentry$$0000000D) for __rt_entry_main
    __rtentry.o(.ARM.Collect$$rtentry$$00000000) refers (Special) to __rtentry2.o(.ARM.Collect$$rtentry$$0000000C) for __rt_entry_postli_1
    __rtentry.o(.ARM.Collect$$rtentry$$00000000) refers (Special) to __rtentry2.o(.ARM.Collect$$rtentry$$00000009) for __rt_entry_postsh_1
    __rtentry.o(.ARM.Collect$$rtentry$$00000000) refers (Special) to __rtentry2.o(.ARM.Collect$$rtentry$$00000002) for __rt_entry_presh_1
    __rtentry.o(.ARM.Collect$$rtentry$$00000000) refers (Special) to __rtentry4.o(.ARM.Collect$$rtentry$$00000004) for __rt_entry_sh
    aeabi_idiv0_sigfpe.o(.text) refers to rt_div0.o(.text) for __rt_div0
    aeabi_ldiv0_sigfpe.o(.text) refers to rt_div0.o(.text) for __rt_div0
    _rserrno.o(.text) refers to rt_errno_addr_intlibspace.o(.text) for __aeabi_errno_addr
    _printf_str.o(.text) refers (Special) to _printf_char.o(.text) for _printf_cs_common
    _printf_str.o(.text) refers (Weak) to _printf_pad.o(.text) for _printf_pre_padding
    _printf_str.o(.text) refers (Weak) to _printf_pad.o(.text) for _printf_post_padding
    _printf_intcommon.o(.text) refers (Weak) to _printf_pad.o(.text) for _printf_pre_padding
    _printf_intcommon.o(.text) refers (Weak) to _printf_pad.o(.text) for _printf_pre_padding
    _printf_intcommon.o(.text) refers (Weak) to _printf_pad.o(.text) for _printf_post_padding
    _printf_fp_dec.o(.text) refers (Special) to usenofp.o(x$fpl$usenofp) for __I$use$fp
    _printf_fp_dec.o(.text) refers (Special) to lc_numeric_c.o(locale$$code) for _get_lc_numeric
    _printf_fp_dec.o(.text) refers to bigflt0.o(.text) for _btod_etento
    _printf_fp_dec.o(.text) refers to btod.o(.text) for _btod_d2e
    _printf_fp_dec.o(.text) refers to lludiv10.o(.text) for _ll_udiv10
    _printf_fp_dec.o(.text) refers to fpclassify.o(i.__ARM_fpclassify) for __ARM_fpclassify
    _printf_fp_dec.o(.text) refers to _printf_fp_infnan.o(.text) for _printf_fp_infnan
    _printf_fp_dec.o(.text) refers to rtudiv10.o(.text) for __rt_udiv10
    _printf_fp_dec.o(.text) refers (Weak) to _printf_pad.o(.text) for _printf_pre_padding
    _printf_fp_dec.o(.text) refers (Weak) to _printf_pad.o(.text) for _printf_pre_padding
    _printf_fp_dec.o(.text) refers to rt_locale_intlibspace.o(.text) for __rt_locale
    _printf_fp_dec.o(.text) refers (Weak) to _printf_pad.o(.text) for _printf_post_padding
    _printf_char_common.o(.text) refers to __printf_flags_ss_wp.o(.text) for __printf
    _printf_wctomb.o(.text) refers (Special) to _printf_wchar.o(.text) for _printf_lcs_common
    _printf_wctomb.o(.text) refers to _wcrtomb.o(.text) for _wcrtomb
    _printf_wctomb.o(.text) refers (Weak) to _printf_pad.o(.text) for _printf_pre_padding
    _printf_wctomb.o(.text) refers (Weak) to _printf_pad.o(.text) for _printf_post_padding
    _printf_wctomb.o(.text) refers to _printf_wctomb.o(.constdata) for .constdata
    _printf_wctomb.o(.constdata) refers (Special) to _printf_wchar.o(.text) for _printf_lcs_common
    _printf_longlong_dec.o(.text) refers to lludiv10.o(.text) for _ll_udiv10
    _printf_longlong_dec.o(.text) refers to _printf_intcommon.o(.text) for _printf_int_common
    _printf_oct_ll.o(.text) refers to _printf_intcommon.o(.text) for _printf_int_common
    _printf_oct_int.o(.text) refers (Weak) to _printf_truncate.o(.text) for _printf_truncate_unsigned
    _printf_oct_int.o(.text) refers to _printf_intcommon.o(.text) for _printf_int_common
    _printf_oct_int_ll.o(.text) refers to _printf_intcommon.o(.text) for _printf_int_common
    _printf_oct_int_ll.o(.text) refers (Weak) to _printf_truncate.o(.text) for _printf_truncate_unsigned
    _printf_hex_ll.o(.text) refers to _printf_intcommon.o(.text) for _printf_int_common
    _printf_hex_ll.o(.text) refers to _printf_hex_ll.o(.constdata) for .constdata
    _printf_hex_int.o(.text) refers (Weak) to _printf_truncate.o(.text) for _printf_truncate_unsigned
    _printf_hex_int.o(.text) refers to _printf_intcommon.o(.text) for _printf_int_common
    _printf_hex_int.o(.text) refers to _printf_hex_int.o(.constdata) for .constdata
    _printf_hex_int_ll.o(.text) refers to _printf_intcommon.o(.text) for _printf_int_common
    _printf_hex_int_ll.o(.text) refers (Weak) to _printf_truncate.o(.text) for _printf_truncate_unsigned
    _printf_hex_int_ll.o(.text) refers to _printf_hex_int_ll.o(.constdata) for .constdata
    _printf_hex_ptr.o(.text) refers to _printf_intcommon.o(.text) for _printf_int_common
    _printf_hex_ptr.o(.text) refers to _printf_hex_ptr.o(.constdata) for .constdata
    _printf_hex_int_ptr.o(.text) refers to _printf_intcommon.o(.text) for _printf_int_common
    _printf_hex_int_ptr.o(.text) refers (Weak) to _printf_truncate.o(.text) for _printf_truncate_unsigned
    _printf_hex_int_ptr.o(.text) refers to _printf_hex_int_ptr.o(.constdata) for .constdata
    _printf_hex_ll_ptr.o(.text) refers to _printf_intcommon.o(.text) for _printf_int_common
    _printf_hex_ll_ptr.o(.text) refers to _printf_hex_ll_ptr.o(.constdata) for .constdata
    _printf_hex_int_ll_ptr.o(.text) refers to _printf_intcommon.o(.text) for _printf_int_common
    _printf_hex_int_ll_ptr.o(.text) refers (Weak) to _printf_truncate.o(.text) for _printf_truncate_unsigned
    _printf_hex_int_ll_ptr.o(.text) refers to _printf_hex_int_ll_ptr.o(.constdata) for .constdata
    _printf_c.o(.ARM.Collect$$_printf_percent$$00000013) refers (Weak) to _printf_char.o(.text) for _printf_char
    _printf_s.o(.ARM.Collect$$_printf_percent$$00000014) refers (Weak) to _printf_char.o(.text) for _printf_string
    _printf_n.o(.ARM.Collect$$_printf_percent$$00000001) refers (Weak) to _printf_charcount.o(.text) for _printf_charcount
    _printf_x.o(.ARM.Collect$$_printf_percent$$0000000C) refers (Weak) to _printf_hex_int_ll_ptr.o(.text) for _printf_int_hex
    _printf_p.o(.ARM.Collect$$_printf_percent$$00000002) refers (Weak) to _printf_hex_int_ll_ptr.o(.text) for _printf_hex_ptr
    _printf_o.o(.ARM.Collect$$_printf_percent$$0000000B) refers (Weak) to _printf_oct_int_ll.o(.text) for _printf_int_oct
    _printf_i.o(.ARM.Collect$$_printf_percent$$00000008) refers (Weak) to _printf_dec.o(.text) for _printf_int_dec
    _printf_u.o(.ARM.Collect$$_printf_percent$$0000000A) refers (Weak) to _printf_dec.o(.text) for _printf_int_dec
    _printf_e.o(.ARM.Collect$$_printf_percent$$00000004) refers (Weak) to printf1.o(x$fpl$printf1) for _printf_fp_dec
    _printf_g.o(.ARM.Collect$$_printf_percent$$00000005) refers (Weak) to printf1.o(x$fpl$printf1) for _printf_fp_dec
    _printf_a.o(.ARM.Collect$$_printf_percent$$00000006) refers (Weak) to printf2.o(x$fpl$printf2) for _printf_fp_hex
    _printf_lli.o(.ARM.Collect$$_printf_percent$$0000000D) refers (Special) to _printf_ll.o(.ARM.Collect$$_printf_percent$$00000007) for _printf_ll
    _printf_lli.o(.ARM.Collect$$_printf_percent$$0000000D) refers (Weak) to _printf_longlong_dec.o(.text) for _printf_longlong_dec
    _printf_lld.o(.ARM.Collect$$_printf_percent$$0000000E) refers (Special) to _printf_ll.o(.ARM.Collect$$_printf_percent$$00000007) for _printf_ll
    _printf_lld.o(.ARM.Collect$$_printf_percent$$0000000E) refers (Weak) to _printf_longlong_dec.o(.text) for _printf_longlong_dec
    _printf_llu.o(.ARM.Collect$$_printf_percent$$0000000F) refers (Special) to _printf_ll.o(.ARM.Collect$$_printf_percent$$00000007) for _printf_ll
    _printf_llu.o(.ARM.Collect$$_printf_percent$$0000000F) refers (Weak) to _printf_longlong_dec.o(.text) for _printf_longlong_dec
    _printf_lc.o(.ARM.Collect$$_printf_percent$$00000015) refers (Special) to _printf_l.o(.ARM.Collect$$_printf_percent$$00000012) for _printf_l
    _printf_lc.o(.ARM.Collect$$_printf_percent$$00000015) refers (Weak) to _printf_wchar.o(.text) for _printf_wchar
    _printf_ls.o(.ARM.Collect$$_printf_percent$$00000016) refers (Special) to _printf_l.o(.ARM.Collect$$_printf_percent$$00000012) for _printf_l
    _printf_ls.o(.ARM.Collect$$_printf_percent$$00000016) refers (Weak) to _printf_wchar.o(.text) for _printf_wstring
    _printf_llo.o(.ARM.Collect$$_printf_percent$$00000010) refers (Special) to _printf_ll.o(.ARM.Collect$$_printf_percent$$00000007) for _printf_ll
    _printf_llo.o(.ARM.Collect$$_printf_percent$$00000010) refers (Weak) to _printf_oct_int_ll.o(.text) for _printf_ll_oct
    _printf_llx.o(.ARM.Collect$$_printf_percent$$00000011) refers (Special) to _printf_ll.o(.ARM.Collect$$_printf_percent$$00000007) for _printf_ll
    _printf_llx.o(.ARM.Collect$$_printf_percent$$00000011) refers (Weak) to _printf_hex_int_ll_ptr.o(.text) for _printf_ll_hex
    dcmpin.o(.text) refers (Special) to usenofp.o(x$fpl$usenofp) for __I$use$fp
    dcmpin.o(.text) refers to cmpret.o(.text) for __fpl_cmpreturn
    dcmpin.o(.text) refers to dnan2.o(.text) for __fpl_dcheck_NaN2
    dscalbn.o(.text) refers (Special) to usenofp.o(x$fpl$usenofp) for __I$use$fp
    dsqrt.o(.text) refers (Special) to usenofp.o(x$fpl$usenofp) for __I$use$fp
    fcmpin.o(.text) refers (Special) to usenofp.o(x$fpl$usenofp) for __I$use$fp
    fcmpin.o(.text) refers to cmpret.o(.text) for __fpl_cmpreturn
    fcmpin.o(.text) refers to fnan2.o(.text) for __fpl_fcheck_NaN2
    printf2.o(x$fpl$printf2) refers to _printf_fp_hex.o(.text) for _printf_fp_hex_real
    printf2b.o(x$fpl$printf2) refers to _printf_fp_hex.o(.text) for _printf_fp_hex_real
    dunder.o(i.__mathlib_dbl_divzero) refers to ddiv.o(.text) for __aeabi_ddiv
    dunder.o(i.__mathlib_dbl_infnan) refers to dscalbn.o(.text) for __ARM_scalbn
    dunder.o(i.__mathlib_dbl_infnan2) refers to daddsub.o(.text) for __aeabi_dadd
    dunder.o(i.__mathlib_dbl_invalid) refers to ddiv.o(.text) for __aeabi_ddiv
    dunder.o(i.__mathlib_dbl_overflow) refers to dscalbn.o(.text) for __ARM_scalbn
    dunder.o(i.__mathlib_dbl_posinfnan) refers to dmul.o(.text) for __aeabi_dmul
    dunder.o(i.__mathlib_dbl_underflow) refers to dscalbn.o(.text) for __ARM_scalbn
    fpclassify.o(i.__ARM_fpclassify) refers (Special) to usenofp.o(x$fpl$usenofp) for __I$use$fp
    poly.o(i.__kernel_poly) refers (Special) to usenofp.o(x$fpl$usenofp) for __I$use$fp
    poly.o(i.__kernel_poly) refers to dmul.o(.text) for __aeabi_dmul
    poly.o(i.__kernel_poly) refers to daddsub.o(.text) for __aeabi_dadd
    qnan.o(.constdata) refers (Special) to usenofp.o(x$fpl$usenofp) for __I$use$fp
    __rtentry2.o(.ARM.Collect$$rtentry$$00000008) refers to boardinit2.o(.text) for _platform_post_stackheap_init
    __rtentry2.o(.ARM.Collect$$rtentry$$0000000A) refers to libinit.o(.ARM.Collect$$libinit$$00000000) for __rt_lib_init
    __rtentry2.o(.ARM.Collect$$rtentry$$0000000B) refers to boardinit3.o(.text) for _platform_post_lib_init
    __rtentry2.o(.ARM.Collect$$rtentry$$0000000D) refers to main.o(i.main) for main
    __rtentry2.o(.ARM.Collect$$rtentry$$0000000D) refers to exit.o(.text) for exit
    __rtentry2.o(.ARM.exidx) refers to __rtentry2.o(.ARM.Collect$$rtentry$$00000001) for .ARM.Collect$$rtentry$$00000001
    __rtentry2.o(.ARM.exidx) refers to __rtentry2.o(.ARM.Collect$$rtentry$$00000008) for .ARM.Collect$$rtentry$$00000008
    __rtentry2.o(.ARM.exidx) refers to __rtentry2.o(.ARM.Collect$$rtentry$$0000000A) for .ARM.Collect$$rtentry$$0000000A
    __rtentry2.o(.ARM.exidx) refers to __rtentry2.o(.ARM.Collect$$rtentry$$0000000B) for .ARM.Collect$$rtentry$$0000000B
    __rtentry2.o(.ARM.exidx) refers to __rtentry2.o(.ARM.Collect$$rtentry$$0000000D) for .ARM.Collect$$rtentry$$0000000D
    __rtentry4.o(.ARM.Collect$$rtentry$$00000004) refers to sys_stackheap_outer.o(.text) for __user_setup_stackheap
    __rtentry4.o(.ARM.exidx) refers to __rtentry4.o(.ARM.Collect$$rtentry$$00000004) for .ARM.Collect$$rtentry$$00000004
    rt_div0.o(.text) refers to defsig_fpe_outer.o(.text) for __rt_SIGFPE
    rt_locale.o(.text) refers to rt_locale.o(.bss) for __rt_locale_data
    rt_locale_intlibspace.o(.text) refers to libspace.o(.bss) for __libspace_start
    rt_errno_addr.o(.text) refers to rt_errno_addr.o(.bss) for __aeabi_errno_addr_data
    rt_errno_addr_intlibspace.o(.text) refers to libspace.o(.bss) for __libspace_start
    _printf_fp_hex.o(.text) refers (Special) to usenofp.o(x$fpl$usenofp) for __I$use$fp
    _printf_fp_hex.o(.text) refers to fpclassify.o(i.__ARM_fpclassify) for __ARM_fpclassify
    _printf_fp_hex.o(.text) refers to _printf_fp_infnan.o(.text) for _printf_fp_infnan
    _printf_fp_hex.o(.text) refers to aeabi_sdiv.o(.text) for __aeabi_idivmod
    _printf_fp_hex.o(.text) refers (Weak) to _printf_pad.o(.text) for _printf_pre_padding
    _printf_fp_hex.o(.text) refers (Weak) to _printf_pad.o(.text) for _printf_pre_padding
    _printf_fp_hex.o(.text) refers (Weak) to _printf_pad.o(.text) for _printf_post_padding
    _printf_fp_hex.o(.text) refers to _printf_fp_hex.o(.constdata) for .constdata
    _printf_fp_hex.o(.constdata) refers (Special) to usenofp.o(x$fpl$usenofp) for __I$use$fp
    _printf_fp_infnan.o(.text) refers (Weak) to _printf_pad.o(.text) for _printf_pre_padding
    _printf_fp_infnan.o(.text) refers (Weak) to _printf_pad.o(.text) for _printf_post_padding
    _printf_char.o(.text) refers (Weak) to _printf_str.o(.text) for _printf_str
    _printf_wchar.o(.text) refers (Weak) to _printf_wctomb.o(.text) for _printf_wctomb
    bigflt0.o(.text) refers (Special) to usenofp.o(x$fpl$usenofp) for __I$use$fp
    bigflt0.o(.text) refers to aeabi_sdiv.o(.text) for __aeabi_idivmod
    bigflt0.o(.text) refers to btod.o(.text) for _btod_emul
    bigflt0.o(.text) refers to bigflt0.o(.constdata) for .constdata
    bigflt0.o(.constdata) refers (Special) to usenofp.o(x$fpl$usenofp) for __I$use$fp
    btod.o(.text) refers to btod.o(i.__ARM_common_ll_muluu) for __ARM_common_ll_muluu
    _wcrtomb.o(.text) refers to rt_ctype_table.o(.text) for __rt_ctype_table
    lc_numeric_c.o(locale$$data) refers (Special) to libinit2.o(.ARM.Collect$$libinit$$00000016) for __rt_lib_init_lc_numeric_2
    lc_numeric_c.o(locale$$code) refers (Special) to libinit2.o(.ARM.Collect$$libinit$$00000016) for __rt_lib_init_lc_numeric_2
    lc_numeric_c.o(locale$$code) refers to strcmp.o(.text) for strcmp
    lc_numeric_c.o(locale$$code) refers to lc_numeric_c.o(locale$$data) for __lcnum_c_name
    cmpret.o(.text) refers (Special) to usenofp.o(x$fpl$usenofp) for __I$use$fp
    dnan2.o(.text) refers (Special) to usenofp.o(x$fpl$usenofp) for __I$use$fp
    dnan2.o(.text) refers to retnan.o(.text) for __fpl_return_NaN
    fnan2.o(.text) refers (Special) to usenofp.o(x$fpl$usenofp) for __I$use$fp
    fnan2.o(.text) refers to retnan.o(.text) for __fpl_return_NaN
    ieee_status.o(.text) refers (Special) to usenofp.o(x$fpl$usenofp) for __I$use$fp
    libspace.o(.text) refers to libspace.o(.bss) for __libspace_start
    sys_stackheap_outer.o(.text) refers to libspace.o(.text) for __user_perproc_libspace
    sys_stackheap_outer.o(.text) refers to startup_mm32spin2xx_p.o(.text) for __user_initial_stackheap
    sys_stackheap_outer.o(__vectab_stack_and_reset_area) refers to tempstk.o(.text) for __temporary_stack_top
    sys_stackheap_outer.o(__vectab_stack_and_reset_area) refers to __main.o(!!!main) for __main
    rt_ctype_table.o(.text) refers to rt_locale_intlibspace.o(.text) for __rt_locale
    rt_ctype_table.o(.text) refers to lc_ctype_c.o(locale$$code) for _get_lc_ctype
    exit.o(.text) refers to rtexit.o(.ARM.Collect$$rtexit$$00000000) for __rt_exit
    defsig_fpe_outer.o(.text) refers to defsig_fpe_inner.o(.text) for __rt_SIGFPE_inner
    defsig_fpe_outer.o(.text) refers to defsig_exit.o(.text) for __sig_exit
    defsig_fpe_formal.o(.text) refers to rt_raise.o(.text) for __rt_raise
    libinit.o(.ARM.Collect$$libinit$$00000000) refers (Special) to libinit2.o(.ARM.Collect$$libinit$$0000002E) for __rt_lib_init_alloca_1
    libinit.o(.ARM.Collect$$libinit$$00000000) refers (Special) to libinit2.o(.ARM.Collect$$libinit$$0000002C) for __rt_lib_init_argv_1
    libinit.o(.ARM.Collect$$libinit$$00000000) refers (Special) to libinit2.o(.ARM.Collect$$libinit$$0000001B) for __rt_lib_init_atexit_1
    libinit.o(.ARM.Collect$$libinit$$00000000) refers (Special) to libinit2.o(.ARM.Collect$$libinit$$00000021) for __rt_lib_init_clock_1
    libinit.o(.ARM.Collect$$libinit$$00000000) refers (Special) to libinit2.o(.ARM.Collect$$libinit$$00000032) for __rt_lib_init_cpp_1
    libinit.o(.ARM.Collect$$libinit$$00000000) refers (Special) to libinit2.o(.ARM.Collect$$libinit$$00000030) for __rt_lib_init_exceptions_1
    libinit.o(.ARM.Collect$$libinit$$00000000) refers (Special) to libinit2.o(.ARM.Collect$$libinit$$00000002) for __rt_lib_init_fp_1
    libinit.o(.ARM.Collect$$libinit$$00000000) refers (Special) to libinit2.o(.ARM.Collect$$libinit$$0000001F) for __rt_lib_init_fp_trap_1
    libinit.o(.ARM.Collect$$libinit$$00000000) refers (Special) to libinit2.o(.ARM.Collect$$libinit$$00000023) for __rt_lib_init_getenv_1
    libinit.o(.ARM.Collect$$libinit$$00000000) refers (Special) to libinit2.o(.ARM.Collect$$libinit$$0000000A) for __rt_lib_init_heap_1
    libinit.o(.ARM.Collect$$libinit$$00000000) refers (Special) to libinit2.o(.ARM.Collect$$libinit$$00000011) for __rt_lib_init_lc_collate_1
    libinit.o(.ARM.Collect$$libinit$$00000000) refers (Special) to libinit2.o(.ARM.Collect$$libinit$$00000013) for __rt_lib_init_lc_ctype_1
    libinit.o(.ARM.Collect$$libinit$$00000000) refers (Special) to libinit2.o(.ARM.Collect$$libinit$$00000015) for __rt_lib_init_lc_monetary_1
    libinit.o(.ARM.Collect$$libinit$$00000000) refers (Special) to libinit2.o(.ARM.Collect$$libinit$$00000017) for __rt_lib_init_lc_numeric_1
    libinit.o(.ARM.Collect$$libinit$$00000000) refers (Special) to libinit2.o(.ARM.Collect$$libinit$$00000019) for __rt_lib_init_lc_time_1
    libinit.o(.ARM.Collect$$libinit$$00000000) refers (Special) to libinit2.o(.ARM.Collect$$libinit$$00000004) for __rt_lib_init_preinit_1
    libinit.o(.ARM.Collect$$libinit$$00000000) refers (Special) to libinit2.o(.ARM.Collect$$libinit$$0000000E) for __rt_lib_init_rand_1
    libinit.o(.ARM.Collect$$libinit$$00000000) refers (Special) to libinit2.o(.ARM.Collect$$libinit$$00000033) for __rt_lib_init_return
    libinit.o(.ARM.Collect$$libinit$$00000000) refers (Special) to libinit2.o(.ARM.Collect$$libinit$$0000001D) for __rt_lib_init_signal_1
    libinit.o(.ARM.Collect$$libinit$$00000000) refers (Special) to libinit2.o(.ARM.Collect$$libinit$$00000025) for __rt_lib_init_stdio_1
    libinit.o(.ARM.Collect$$libinit$$00000000) refers (Special) to libinit2.o(.ARM.Collect$$libinit$$0000000C) for __rt_lib_init_user_alloc_1
    libinit2.o(.ARM.Collect$$libinit$$0000000F) refers (Weak) to rt_locale_intlibspace.o(.text) for __rt_locale
    libinit2.o(.ARM.Collect$$libinit$$00000010) refers to libinit2.o(.ARM.Collect$$libinit$$0000000F) for .ARM.Collect$$libinit$$0000000F
    libinit2.o(.ARM.Collect$$libinit$$00000012) refers to libinit2.o(.ARM.Collect$$libinit$$0000000F) for .ARM.Collect$$libinit$$0000000F
    libinit2.o(.ARM.Collect$$libinit$$00000012) refers (Weak) to lc_ctype_c.o(locale$$code) for _get_lc_ctype
    libinit2.o(.ARM.Collect$$libinit$$00000014) refers to libinit2.o(.ARM.Collect$$libinit$$0000000F) for .ARM.Collect$$libinit$$0000000F
    libinit2.o(.ARM.Collect$$libinit$$00000016) refers to libinit2.o(.ARM.Collect$$libinit$$0000000F) for .ARM.Collect$$libinit$$0000000F
    libinit2.o(.ARM.Collect$$libinit$$00000016) refers (Weak) to lc_numeric_c.o(locale$$code) for _get_lc_numeric
    libinit2.o(.ARM.Collect$$libinit$$00000018) refers to libinit2.o(.ARM.Collect$$libinit$$0000000F) for .ARM.Collect$$libinit$$0000000F
    libinit2.o(.ARM.Collect$$libinit$$00000026) refers to argv_veneer.o(.text) for __ARM_argv_veneer
    libinit2.o(.ARM.Collect$$libinit$$00000027) refers to argv_veneer.o(.text) for __ARM_argv_veneer
    retnan.o(.text) refers (Special) to usenofp.o(x$fpl$usenofp) for __I$use$fp
    retnan.o(.text) refers to cmpret.o(.text) for __fpl_cmpreturn
    rtexit.o(.ARM.Collect$$rtexit$$00000000) refers (Special) to rtexit2.o(.ARM.Collect$$rtexit$$00000004) for __rt_exit_exit
    rtexit.o(.ARM.Collect$$rtexit$$00000000) refers (Special) to rtexit2.o(.ARM.Collect$$rtexit$$00000003) for __rt_exit_ls
    rtexit.o(.ARM.Collect$$rtexit$$00000000) refers (Special) to rtexit2.o(.ARM.Collect$$rtexit$$00000002) for __rt_exit_prels_1
    rtexit.o(.ARM.exidx) refers (Special) to rtexit2.o(.ARM.Collect$$rtexit$$00000004) for __rt_exit_exit
    rtexit.o(.ARM.exidx) refers (Special) to rtexit2.o(.ARM.Collect$$rtexit$$00000003) for __rt_exit_ls
    rtexit.o(.ARM.exidx) refers (Special) to rtexit2.o(.ARM.Collect$$rtexit$$00000002) for __rt_exit_prels_1
    rtexit.o(.ARM.exidx) refers to rtexit.o(.ARM.Collect$$rtexit$$00000000) for .ARM.Collect$$rtexit$$00000000
    rt_raise.o(.text) refers to __raise.o(.text) for __raise
    rt_raise.o(.text) refers to sys_exit.o(.text) for _sys_exit
    lc_ctype_c.o(locale$$data) refers (Special) to libinit2.o(.ARM.Collect$$libinit$$00000012) for __rt_lib_init_lc_ctype_2
    lc_ctype_c.o(locale$$code) refers (Special) to libinit2.o(.ARM.Collect$$libinit$$00000012) for __rt_lib_init_lc_ctype_2
    lc_ctype_c.o(locale$$code) refers to strcmp.o(.text) for strcmp
    lc_ctype_c.o(locale$$code) refers to lc_ctype_c.o(locale$$data) for __lcctype_c_name
    defsig_exit.o(.text) refers to sys_exit.o(.text) for _sys_exit
    defsig_fpe_inner.o(.text) refers to defsig_general.o(.text) for __default_signal_display
    sys_exit.o(.text) refers (Special) to use_no_semi.o(.text) for __I$use$semihosting
    sys_exit.o(.text) refers (Special) to indicate_semi.o(.text) for __semihosting_library_function
    rtexit2.o(.ARM.Collect$$rtexit$$00000003) refers to libshutdown.o(.ARM.Collect$$libshutdown$$00000000) for __rt_lib_shutdown
    rtexit2.o(.ARM.Collect$$rtexit$$00000004) refers to sys_exit.o(.text) for _sys_exit
    rtexit2.o(.ARM.exidx) refers to rtexit2.o(.ARM.Collect$$rtexit$$00000001) for .ARM.Collect$$rtexit$$00000001
    rtexit2.o(.ARM.exidx) refers to rtexit2.o(.ARM.Collect$$rtexit$$00000003) for .ARM.Collect$$rtexit$$00000003
    rtexit2.o(.ARM.exidx) refers to rtexit2.o(.ARM.Collect$$rtexit$$00000004) for .ARM.Collect$$rtexit$$00000004
    __raise.o(.text) refers to defsig.o(CL$$defsig) for __default_signal_handler
    defsig_general.o(.text) refers to sys_wrch.o(.text) for _ttywrch
    _get_argv_nomalloc.o(.text) refers (Special) to hrguard.o(.text) for __heap_region$guard
    _get_argv_nomalloc.o(.text) refers to defsig_rtmem_outer.o(.text) for __rt_SIGRTMEM
    _get_argv_nomalloc.o(.text) refers to sys_command.o(.text) for _sys_command_string
    sys_wrch.o(.text) refers (Special) to use_no_semi.o(.text) for __I$use$semihosting
    sys_wrch.o(.text) refers (Special) to indicate_semi.o(.text) for __semihosting_library_function
    sys_command.o(.text) refers (Special) to use_no_semi.o(.text) for __I$use$semihosting
    sys_command.o(.text) refers (Special) to indicate_semi.o(.text) for __semihosting_library_function
    defsig_rtmem_outer.o(.text) refers to defsig_rtmem_inner.o(.text) for __rt_SIGRTMEM_inner
    defsig_rtmem_outer.o(.text) refers to defsig_exit.o(.text) for __sig_exit
    defsig_rtmem_formal.o(.text) refers to rt_raise.o(.text) for __rt_raise
    defsig.o(CL$$defsig) refers to defsig_fpe_inner.o(.text) for __rt_SIGFPE_inner
    defsig.o(CL$$defsig) refers to defsig_rtmem_inner.o(.text) for __rt_SIGRTMEM_inner
    libshutdown.o(.ARM.Collect$$libshutdown$$00000000) refers (Special) to libshutdown2.o(.ARM.Collect$$libshutdown$$00000002) for __rt_lib_shutdown_cpp_1
    libshutdown.o(.ARM.Collect$$libshutdown$$00000000) refers (Special) to libshutdown2.o(.ARM.Collect$$libshutdown$$00000007) for __rt_lib_shutdown_fp_trap_1
    libshutdown.o(.ARM.Collect$$libshutdown$$00000000) refers (Special) to libshutdown2.o(.ARM.Collect$$libshutdown$$0000000F) for __rt_lib_shutdown_heap_1
    libshutdown.o(.ARM.Collect$$libshutdown$$00000000) refers (Special) to libshutdown2.o(.ARM.Collect$$libshutdown$$00000010) for __rt_lib_shutdown_return
    libshutdown.o(.ARM.Collect$$libshutdown$$00000000) refers (Special) to libshutdown2.o(.ARM.Collect$$libshutdown$$0000000A) for __rt_lib_shutdown_signal_1
    libshutdown.o(.ARM.Collect$$libshutdown$$00000000) refers (Special) to libshutdown2.o(.ARM.Collect$$libshutdown$$00000004) for __rt_lib_shutdown_stdio_1
    libshutdown.o(.ARM.Collect$$libshutdown$$00000000) refers (Special) to libshutdown2.o(.ARM.Collect$$libshutdown$$0000000C) for __rt_lib_shutdown_user_alloc_1
    defsig_abrt_inner.o(.text) refers to defsig_general.o(.text) for __default_signal_display
    defsig_rtred_inner.o(.text) refers to defsig_general.o(.text) for __default_signal_display
    defsig_rtmem_inner.o(.text) refers to defsig_general.o(.text) for __default_signal_display
    defsig_stak_inner.o(.text) refers to defsig_general.o(.text) for __default_signal_display
    defsig_pvfn_inner.o(.text) refers to defsig_general.o(.text) for __default_signal_display
    defsig_cppl_inner.o(.text) refers to defsig_general.o(.text) for __default_signal_display
    defsig_segv_inner.o(.text) refers to defsig_general.o(.text) for __default_signal_display
    defsig_other.o(.text) refers to defsig_general.o(.text) for __default_signal_display


==============================================================================

Removing Unused input sections from the image.

    Removing main.o(.rev16_text), (4 bytes).
    Removing main.o(.revsh_text), (4 bytes).
    Removing main.o(.bss), (255 bytes).
    Removing main.o(.data), (5 bytes).
    Removing hal_adc.o(.rev16_text), (4 bytes).
    Removing hal_adc.o(.revsh_text), (4 bytes).
    Removing hal_adc.o(i.ADC_AnalogWatchdogCmd), (24 bytes).
    Removing hal_adc.o(i.ADC_AnalogWatchdogSingleChannelConfig), (26 bytes).
    Removing hal_adc.o(i.ADC_AnalogWatchdogThresholdsConfig), (12 bytes).
    Removing hal_adc.o(i.ADC_ClearFlag), (8 bytes).
    Removing hal_adc.o(i.ADC_ClearITPendingBit), (4 bytes).
    Removing hal_adc.o(i.ADC_DMACmd), (24 bytes).
    Removing hal_adc.o(i.ADC_DeInit), (60 bytes).
    Removing hal_adc.o(i.ADC_ExternalTrigConvCmd), (24 bytes).
    Removing hal_adc.o(i.ADC_ExternalTrigShiftTimeSet), (18 bytes).
    Removing hal_adc.o(i.ADC_GetConversionValue), (116 bytes).
    Removing hal_adc.o(i.ADC_GetFlagStatus), (20 bytes).
    Removing hal_adc.o(i.ADC_GetITStatus), (20 bytes).
    Removing hal_adc.o(i.ADC_GetSoftwareStartConvStatus), (24 bytes).
    Removing hal_adc.o(i.ADC_ITConfig), (20 bytes).
    Removing hal_adc.o(i.ADC_Scan_Direction), (18 bytes).
    Removing hal_adc.o(i.ADC_StructInit), (14 bytes).
    Removing hal_adc.o(i.ADC_TempSensorCmd), (64 bytes).
    Removing hal_adc.o(i.ADC_VrefintCmd), (64 bytes).
    Removing hal_comp.o(.rev16_text), (4 bytes).
    Removing hal_comp.o(.revsh_text), (4 bytes).
    Removing hal_comp.o(i.COMP_Cmd), (80 bytes).
    Removing hal_comp.o(i.COMP_DeInit), (16 bytes).
    Removing hal_comp.o(i.COMP_GetOutputLevel), (76 bytes).
    Removing hal_comp.o(i.COMP_Init), (156 bytes).
    Removing hal_comp.o(i.COMP_LockConfig), (64 bytes).
    Removing hal_comp.o(i.COMP_StructInit), (22 bytes).
    Removing hal_comp.o(i.SET_COMP_CRV), (36 bytes).
    Removing hal_crc.o(.rev16_text), (4 bytes).
    Removing hal_crc.o(.revsh_text), (4 bytes).
    Removing hal_crc.o(i.CRC_CalcBlockCRC), (40 bytes).
    Removing hal_crc.o(i.CRC_CalcCRC), (20 bytes).
    Removing hal_crc.o(i.CRC_GetCRC), (12 bytes).
    Removing hal_crc.o(i.CRC_GetIDRegister), (12 bytes).
    Removing hal_crc.o(i.CRC_ResetDR), (12 bytes).
    Removing hal_crc.o(i.CRC_SetIDRegister), (12 bytes).
    Removing hal_div.o(.rev16_text), (4 bytes).
    Removing hal_div.o(.revsh_text), (4 bytes).
    Removing hal_div.o(i.Divider_Calc), (16 bytes).
    Removing hal_div.o(i.HWDivider_Calc), (36 bytes).
    Removing hal_div.o(i.HWDivider_UnsignInit), (20 bytes).
    Removing hal_dma.o(.rev16_text), (4 bytes).
    Removing hal_dma.o(.revsh_text), (4 bytes).
    Removing hal_dma.o(i.DMA_ClearFlag), (12 bytes).
    Removing hal_dma.o(i.DMA_ClearITPendingBit), (12 bytes).
    Removing hal_dma.o(i.DMA_Cmd), (24 bytes).
    Removing hal_dma.o(i.DMA_DeInit), (156 bytes).
    Removing hal_dma.o(i.DMA_GetCurrDataCounter), (8 bytes).
    Removing hal_dma.o(i.DMA_GetFlagStatus), (32 bytes).
    Removing hal_dma.o(i.DMA_GetITStatus), (32 bytes).
    Removing hal_dma.o(i.DMA_ITConfig), (20 bytes).
    Removing hal_dma.o(i.DMA_Init), (64 bytes).
    Removing hal_dma.o(i.DMA_StructInit), (26 bytes).
    Removing hal_exti.o(.rev16_text), (4 bytes).
    Removing hal_exti.o(.revsh_text), (4 bytes).
    Removing hal_exti.o(i.EXTI_ClearFlag), (12 bytes).
    Removing hal_exti.o(i.EXTI_ClearITPendingBit), (12 bytes).
    Removing hal_exti.o(i.EXTI_DeInit), (28 bytes).
    Removing hal_exti.o(i.EXTI_GenerateSWInterrupt), (16 bytes).
    Removing hal_exti.o(i.EXTI_GetFlagStatus), (28 bytes).
    Removing hal_exti.o(i.EXTI_GetITStatus), (40 bytes).
    Removing hal_exti.o(i.EXTI_Init), (140 bytes).
    Removing hal_exti.o(i.EXTI_StructInit), (16 bytes).
    Removing hal_flash.o(.rev16_text), (4 bytes).
    Removing hal_flash.o(.revsh_text), (4 bytes).
    Removing hal_flash.o(i.FLASH_ClearFlag), (12 bytes).
    Removing hal_flash.o(i.FLASH_EnableWriteProtection), (204 bytes).
    Removing hal_flash.o(i.FLASH_EraseAllPages), (80 bytes).
    Removing hal_flash.o(i.FLASH_EraseOptionBlock), (140 bytes).
    Removing hal_flash.o(i.FLASH_EraseOptionBytes), (172 bytes).
    Removing hal_flash.o(i.FLASH_ErasePage), (84 bytes).
    Removing hal_flash.o(i.FLASH_GetFlagStatus), (48 bytes).
    Removing hal_flash.o(i.FLASH_GetPrefetchBufferStatus), (28 bytes).
    Removing hal_flash.o(i.FLASH_GetReadOutProtectionStatus), (28 bytes).
    Removing hal_flash.o(i.FLASH_GetStatus), (60 bytes).
    Removing hal_flash.o(i.FLASH_GetUserOptionByte), (12 bytes).
    Removing hal_flash.o(i.FLASH_GetWriteProtectionOptionByte), (12 bytes).
    Removing hal_flash.o(i.FLASH_HalfCycleAccessCmd), (28 bytes).
    Removing hal_flash.o(i.FLASH_ITConfig), (32 bytes).
    Removing hal_flash.o(i.FLASH_Lock), (20 bytes).
    Removing hal_flash.o(i.FLASH_PrefetchBufferCmd), (28 bytes).
    Removing hal_flash.o(i.FLASH_ProgramHalfWord), (72 bytes).
    Removing hal_flash.o(i.FLASH_ProgramOptionByteData), (88 bytes).
    Removing hal_flash.o(i.FLASH_ProgramOptionHalfWord), (116 bytes).
    Removing hal_flash.o(i.FLASH_ProgramWord), (104 bytes).
    Removing hal_flash.o(i.FLASH_SetLatency), (28 bytes).
    Removing hal_flash.o(i.FLASH_Unlock), (24 bytes).
    Removing hal_flash.o(i.FLASH_UserOptionByteConfig), (108 bytes).
    Removing hal_flash.o(i.FLASH_WaitForLastOperation), (44 bytes).
    Removing hal_flash.o(i.delay), (26 bytes).
    Removing hal_gpio.o(.rev16_text), (4 bytes).
    Removing hal_gpio.o(.revsh_text), (4 bytes).
    Removing hal_gpio.o(i.GPIO_DeInit), (120 bytes).
    Removing hal_gpio.o(i.GPIO_PinLockConfig), (22 bytes).
    Removing hal_gpio.o(i.GPIO_ReadInputData), (8 bytes).
    Removing hal_gpio.o(i.GPIO_ReadOutputData), (8 bytes).
    Removing hal_gpio.o(i.GPIO_ReadOutputDataBit), (20 bytes).
    Removing hal_gpio.o(i.GPIO_StructInit), (16 bytes).
    Removing hal_gpio.o(i.GPIO_Write), (4 bytes).
    Removing hal_gpio.o(i.GPIO_WriteBit), (12 bytes).
    Removing hal_i2c.o(.rev16_text), (4 bytes).
    Removing hal_i2c.o(.revsh_text), (4 bytes).
    Removing hal_i2c.o(i.I2C_CheckEvent), (56 bytes).
    Removing hal_i2c.o(i.I2C_ClearFlag), (146 bytes).
    Removing hal_i2c.o(i.I2C_ClearITPendingBit), (146 bytes).
    Removing hal_i2c.o(i.I2C_Cmd), (36 bytes).
    Removing hal_i2c.o(i.I2C_DMACmd), (72 bytes).
    Removing hal_i2c.o(i.I2C_DeInit), (36 bytes).
    Removing hal_i2c.o(i.I2C_DualAddressCmd), (32 bytes).
    Removing hal_i2c.o(i.I2C_GeneralCallCmd), (32 bytes).
    Removing hal_i2c.o(i.I2C_GenerateSTART), (28 bytes).
    Removing hal_i2c.o(i.I2C_GenerateSTOP), (64 bytes).
    Removing hal_i2c.o(i.I2C_GetFlagStatus), (80 bytes).
    Removing hal_i2c.o(i.I2C_GetITStatus), (20 bytes).
    Removing hal_i2c.o(i.I2C_GetLastEvent), (20 bytes).
    Removing hal_i2c.o(i.I2C_ITConfig), (28 bytes).
    Removing hal_i2c.o(i.I2C_Init), (204 bytes).
    Removing hal_i2c.o(i.I2C_OwnAddress2Config), (20 bytes).
    Removing hal_i2c.o(i.I2C_ReadCmd), (8 bytes).
    Removing hal_i2c.o(i.I2C_ReadLastDataOrStop), (12 bytes).
    Removing hal_i2c.o(i.I2C_ReadRegister), (6 bytes).
    Removing hal_i2c.o(i.I2C_ReceiveData), (20 bytes).
    Removing hal_i2c.o(i.I2C_Send7bitAddress), (6 bytes).
    Removing hal_i2c.o(i.I2C_SendData), (4 bytes).
    Removing hal_i2c.o(i.I2C_SendLastDataOrStop), (10 bytes).
    Removing hal_i2c.o(i.I2C_StructInit), (24 bytes).
    Removing hal_i2c.o(.data), (4 bytes).
    Removing hal_iwdg.o(.rev16_text), (4 bytes).
    Removing hal_iwdg.o(.revsh_text), (4 bytes).
    Removing hal_iwdg.o(i.IWDG_ClearIT), (20 bytes).
    Removing hal_iwdg.o(i.IWDG_Enable), (16 bytes).
    Removing hal_iwdg.o(i.IWDG_EnableIT), (20 bytes).
    Removing hal_iwdg.o(i.IWDG_GetFlagStatus), (28 bytes).
    Removing hal_iwdg.o(i.IWDG_ReloadCounter), (16 bytes).
    Removing hal_iwdg.o(i.IWDG_Reset), (20 bytes).
    Removing hal_iwdg.o(i.IWDG_SetPrescaler), (12 bytes).
    Removing hal_iwdg.o(i.IWDG_SetReload), (12 bytes).
    Removing hal_iwdg.o(i.IWDG_WriteAccessCmd), (12 bytes).
    Removing hal_misc.o(.rev16_text), (4 bytes).
    Removing hal_misc.o(.revsh_text), (4 bytes).
    Removing hal_misc.o(i.NVIC_SetVectorTable), (2 bytes).
    Removing hal_misc.o(i.NVIC_SystemLPConfig), (32 bytes).
    Removing hal_op.o(.rev16_text), (4 bytes).
    Removing hal_op.o(.revsh_text), (4 bytes).
    Removing hal_op.o(i.OPAMP_Configure), (32 bytes).
    Removing hal_pwr.o(.rev16_text), (4 bytes).
    Removing hal_pwr.o(.revsh_text), (4 bytes).
    Removing hal_pwr.o(i.PWR_BackupAccessCmd), (40 bytes).
    Removing hal_pwr.o(i.PWR_ClearFlag), (20 bytes).
    Removing hal_pwr.o(i.PWR_DeInit), (22 bytes).
    Removing hal_pwr.o(i.PWR_EnterSLEEPMode), (44 bytes).
    Removing hal_pwr.o(i.PWR_EnterSTANDBYMode), (52 bytes).
    Removing hal_pwr.o(i.PWR_EnterSTOPMode), (56 bytes).
    Removing hal_pwr.o(i.PWR_GetFlagStatus), (28 bytes).
    Removing hal_pwr.o(i.PWR_PVDCmd), (36 bytes).
    Removing hal_pwr.o(i.PWR_PVDLevelConfig), (36 bytes).
    Removing hal_pwr.o(i.PWR_WakeUpPinCmd), (40 bytes).
    Removing hal_rcc.o(.rev16_text), (4 bytes).
    Removing hal_rcc.o(.revsh_text), (4 bytes).
    Removing hal_rcc.o(i.RCC_APB1PeriphResetCmd), (32 bytes).
    Removing hal_rcc.o(i.RCC_APB2PeriphResetCmd), (32 bytes).
    Removing hal_rcc.o(i.RCC_AdjustHSICalibrationValue), (32 bytes).
    Removing hal_rcc.o(i.RCC_ClearFlag), (20 bytes).
    Removing hal_rcc.o(i.RCC_ClearITPendingBit), (20 bytes).
    Removing hal_rcc.o(i.RCC_ClockSecuritySystemCmd), (40 bytes).
    Removing hal_rcc.o(i.RCC_DeInit), (84 bytes).
    Removing hal_rcc.o(i.RCC_GetFlagStatus), (56 bytes).
    Removing hal_rcc.o(i.RCC_GetITStatus), (28 bytes).
    Removing hal_rcc.o(i.RCC_GetSYSCLKSource), (16 bytes).
    Removing hal_rcc.o(i.RCC_HCLKConfig), (32 bytes).
    Removing hal_rcc.o(i.RCC_HSEConfig), (80 bytes).
    Removing hal_rcc.o(i.RCC_HSICmd), (36 bytes).
    Removing hal_rcc.o(i.RCC_ITConfig), (36 bytes).
    Removing hal_rcc.o(i.RCC_LSICmd), (36 bytes).
    Removing hal_rcc.o(i.RCC_MCOConfig), (32 bytes).
    Removing hal_rcc.o(i.RCC_PCLK1Config), (36 bytes).
    Removing hal_rcc.o(i.RCC_PCLK2Config), (32 bytes).
    Removing hal_rcc.o(i.RCC_PLLCmd), (40 bytes).
    Removing hal_rcc.o(i.RCC_PLLConfig), (232 bytes).
    Removing hal_rcc.o(i.RCC_PLLDMDNConfig), (36 bytes).
    Removing hal_rcc.o(i.RCC_SYSCLKConfig), (28 bytes).
    Removing hal_rcc.o(i.RCC_WaitForHSEStartUp), (60 bytes).
    Removing hal_spi.o(.rev16_text), (4 bytes).
    Removing hal_spi.o(.revsh_text), (4 bytes).
    Removing hal_spi.o(i.SPI_BiDirectionalLineConfig), (60 bytes).
    Removing hal_spi.o(i.SPI_CSInternalSelected), (24 bytes).
    Removing hal_spi.o(i.SPI_ClearITPendingBit), (8 bytes).
    Removing hal_spi.o(i.SPI_Cmd), (28 bytes).
    Removing hal_spi.o(i.SPI_DMACmd), (20 bytes).
    Removing hal_spi.o(i.SPI_DataSizeConfig), (20 bytes).
    Removing hal_spi.o(i.SPI_DeInit), (60 bytes).
    Removing hal_spi.o(i.SPI_FifoTrigger), (20 bytes).
    Removing hal_spi.o(i.SPI_GetFlagStatus), (104 bytes).
    Removing hal_spi.o(i.SPI_GetITStatus), (20 bytes).
    Removing hal_spi.o(i.SPI_ITConfig), (44 bytes).
    Removing hal_spi.o(i.SPI_Init), (92 bytes).
    Removing hal_spi.o(i.SPI_NSSInternalSoftwareConfig), (32 bytes).
    Removing hal_spi.o(i.SPI_ReceiveData), (50 bytes).
    Removing hal_spi.o(i.SPI_RxBytes), (4 bytes).
    Removing hal_spi.o(i.SPI_SendData), (40 bytes).
    Removing hal_spi.o(i.SPI_SlaveAdjust), (8 bytes).
    Removing hal_spi.o(i.SPI_StructInit), (32 bytes).
    Removing hal_syscfg.o(.rev16_text), (4 bytes).
    Removing hal_syscfg.o(.revsh_text), (4 bytes).
    Removing hal_syscfg.o(i.SYSCFG_DMAChannelRemapConfig), (32 bytes).
    Removing hal_syscfg.o(i.SYSCFG_DeInit), (32 bytes).
    Removing hal_syscfg.o(i.SYSCFG_EXTILineConfig), (64 bytes).
    Removing hal_syscfg.o(i.SYSCFG_MemoryRemapConfig), (28 bytes).
    Removing hal_tim.o(.rev16_text), (4 bytes).
    Removing hal_tim.o(.revsh_text), (4 bytes).
    Removing hal_tim.o(i.TI1_Config), (60 bytes).
    Removing hal_tim.o(i.TI2_Config), (80 bytes).
    Removing hal_tim.o(i.TI3_Config), (76 bytes).
    Removing hal_tim.o(i.TI4_Config), (84 bytes).
    Removing hal_tim.o(i.TIM_BDTRConfig), (30 bytes).
    Removing hal_tim.o(i.TIM_BDTRStructInit), (18 bytes).
    Removing hal_tim.o(i.TIM_CCPreloadControl), (28 bytes).
    Removing hal_tim.o(i.TIM_CCxCmd), (34 bytes).
    Removing hal_tim.o(i.TIM_CCxNCmd), (34 bytes).
    Removing hal_tim.o(i.TIM_ClearFlag), (8 bytes).
    Removing hal_tim.o(i.TIM_ClearOC1Ref), (28 bytes).
    Removing hal_tim.o(i.TIM_ClearOC2Ref), (22 bytes).
    Removing hal_tim.o(i.TIM_ClearOC3Ref), (28 bytes).
    Removing hal_tim.o(i.TIM_ClearOC4Ref), (22 bytes).
    Removing hal_tim.o(i.TIM_ClearOC5Ref), (28 bytes).
    Removing hal_tim.o(i.TIM_CounterModeConfig), (28 bytes).
    Removing hal_tim.o(i.TIM_DMACmd), (26 bytes).
    Removing hal_tim.o(i.TIM_DMAConfig), (8 bytes).
    Removing hal_tim.o(i.TIM_DeInit), (204 bytes).
    Removing hal_tim.o(i.TIM_ETRClockMode1Config), (52 bytes).
    Removing hal_tim.o(i.TIM_ETRClockMode2Config), (34 bytes).
    Removing hal_tim.o(i.TIM_ETRConfig), (26 bytes).
    Removing hal_tim.o(i.TIM_EncoderInterfaceConfig), (72 bytes).
    Removing hal_tim.o(i.TIM_ForcedOC1Config), (28 bytes).
    Removing hal_tim.o(i.TIM_ForcedOC2Config), (28 bytes).
    Removing hal_tim.o(i.TIM_ForcedOC3Config), (28 bytes).
    Removing hal_tim.o(i.TIM_ForcedOC4Config), (28 bytes).
    Removing hal_tim.o(i.TIM_GenerateEvent), (4 bytes).
    Removing hal_tim.o(i.TIM_GetCapture1), (6 bytes).
    Removing hal_tim.o(i.TIM_GetCapture2), (6 bytes).
    Removing hal_tim.o(i.TIM_GetCapture3), (6 bytes).
    Removing hal_tim.o(i.TIM_GetCapture4), (6 bytes).
    Removing hal_tim.o(i.TIM_GetCapture5), (6 bytes).
    Removing hal_tim.o(i.TIM_GetCounter), (6 bytes).
    Removing hal_tim.o(i.TIM_GetFlagStatus), (20 bytes).
    Removing hal_tim.o(i.TIM_GetPrescaler), (8 bytes).
    Removing hal_tim.o(i.TIM_ICInit), (112 bytes).
    Removing hal_tim.o(i.TIM_ICStructInit), (18 bytes).
    Removing hal_tim.o(i.TIM_ITRxExternalClockConfig), (24 bytes).
    Removing hal_tim.o(i.TIM_IdleDirectOutputs), (28 bytes).
    Removing hal_tim.o(i.TIM_InternalClockConfig), (16 bytes).
    Removing hal_tim.o(i.TIM_OC1FastConfig), (28 bytes).
    Removing hal_tim.o(i.TIM_OC1NPolarityConfig), (28 bytes).
    Removing hal_tim.o(i.TIM_OC1PolarityConfig), (28 bytes).
    Removing hal_tim.o(i.TIM_OC2FastConfig), (28 bytes).
    Removing hal_tim.o(i.TIM_OC2NPolarityConfig), (28 bytes).
    Removing hal_tim.o(i.TIM_OC2PolarityConfig), (28 bytes).
    Removing hal_tim.o(i.TIM_OC3FastConfig), (28 bytes).
    Removing hal_tim.o(i.TIM_OC3NPolarityConfig), (28 bytes).
    Removing hal_tim.o(i.TIM_OC3PolarityConfig), (28 bytes).
    Removing hal_tim.o(i.TIM_OC4FastConfig), (28 bytes).
    Removing hal_tim.o(i.TIM_OC4PolarityConfig), (28 bytes).
    Removing hal_tim.o(i.TIM_OC5FastConfig), (28 bytes).
    Removing hal_tim.o(i.TIM_OC5Init), (108 bytes).
    Removing hal_tim.o(i.TIM_OC5PolarityConfig), (18 bytes).
    Removing hal_tim.o(i.TIM_OC5PreloadConfig), (28 bytes).
    Removing hal_tim.o(i.TIM_OCStructInit), (20 bytes).
    Removing hal_tim.o(i.TIM_PWMIConfig), (124 bytes).
    Removing hal_tim.o(i.TIM_PrescalerConfig), (6 bytes).
    Removing hal_tim.o(i.TIM_SelectCCDMA), (28 bytes).
    Removing hal_tim.o(i.TIM_SelectCOM), (28 bytes).
    Removing hal_tim.o(i.TIM_SelectHallSensor), (28 bytes).
    Removing hal_tim.o(i.TIM_SelectInputTrigger), (28 bytes).
    Removing hal_tim.o(i.TIM_SelectMasterSlaveMode), (20 bytes).
    Removing hal_tim.o(i.TIM_SelectOCxM), (86 bytes).
    Removing hal_tim.o(i.TIM_SelectOnePulseMode), (20 bytes).
    Removing hal_tim.o(i.TIM_SelectOutputTrigger), (20 bytes).
    Removing hal_tim.o(i.TIM_SelectSlaveMode), (20 bytes).
    Removing hal_tim.o(i.TIM_SetAutoreload), (4 bytes).
    Removing hal_tim.o(i.TIM_SetClockDivision), (20 bytes).
    Removing hal_tim.o(i.TIM_SetCompare1), (4 bytes).
    Removing hal_tim.o(i.TIM_SetCompare2), (4 bytes).
    Removing hal_tim.o(i.TIM_SetCompare3), (4 bytes).
    Removing hal_tim.o(i.TIM_SetCompare4), (4 bytes).
    Removing hal_tim.o(i.TIM_SetCompare5), (4 bytes).
    Removing hal_tim.o(i.TIM_SetCounter), (4 bytes).
    Removing hal_tim.o(i.TIM_SetIC1Prescaler), (20 bytes).
    Removing hal_tim.o(i.TIM_SetIC2Prescaler), (24 bytes).
    Removing hal_tim.o(i.TIM_SetIC3Prescaler), (20 bytes).
    Removing hal_tim.o(i.TIM_SetIC4Prescaler), (24 bytes).
    Removing hal_tim.o(i.TIM_TIxExternalClockConfig), (58 bytes).
    Removing hal_tim.o(i.TIM_TimeBaseStructInit), (20 bytes).
    Removing hal_tim.o(i.TIM_UpdateDisableConfig), (28 bytes).
    Removing hal_tim.o(i.TIM_UpdateRequestConfig), (28 bytes).
    Removing hal_uart.o(.rev16_text), (4 bytes).
    Removing hal_uart.o(.revsh_text), (4 bytes).
    Removing hal_uart.o(i.UART_ClearFlag), (12 bytes).
    Removing hal_uart.o(i.UART_DMACmd), (20 bytes).
    Removing hal_uart.o(i.UART_DeInit), (64 bytes).
    Removing hal_uart.o(i.UART_Enable9bit), (32 bytes).
    Removing hal_uart.o(i.UART_GetITStatus), (20 bytes).
    Removing hal_uart.o(i.UART_HalfDuplexCmd), (32 bytes).
    Removing hal_uart.o(i.UART_ReceiverWakeUpCmd), (32 bytes).
    Removing hal_uart.o(i.UART_SendBreak), (10 bytes).
    Removing hal_uart.o(i.UART_Set9bitAutomaticToggle), (32 bytes).
    Removing hal_uart.o(i.UART_Set9bitLevel), (32 bytes).
    Removing hal_uart.o(i.UART_Set9bitPolarity), (32 bytes).
    Removing hal_uart.o(i.UART_SetGuardTime), (24 bytes).
    Removing hal_uart.o(i.UART_SetRXAddress), (18 bytes).
    Removing hal_uart.o(i.UART_SetRXMASK), (18 bytes).
    Removing hal_uart.o(i.UART_SmartCardCmd), (28 bytes).
    Removing hal_uart.o(i.UART_SmartCardNACKCmd), (28 bytes).
    Removing hal_uart.o(i.UART_StructInit), (26 bytes).
    Removing hal_uart.o(i.UART_WakeUpConfig), (20 bytes).
    Removing hal_wwdg.o(.rev16_text), (4 bytes).
    Removing hal_wwdg.o(.revsh_text), (4 bytes).
    Removing hal_wwdg.o(i.WWDG_ClearFlag), (12 bytes).
    Removing hal_wwdg.o(i.WWDG_DeInit), (22 bytes).
    Removing hal_wwdg.o(i.WWDG_Enable), (16 bytes).
    Removing hal_wwdg.o(i.WWDG_EnableIT), (20 bytes).
    Removing hal_wwdg.o(i.WWDG_GetFlagStatus), (12 bytes).
    Removing hal_wwdg.o(i.WWDG_SetCounter), (16 bytes).
    Removing hal_wwdg.o(i.WWDG_SetPrescaler), (32 bytes).
    Removing hal_wwdg.o(i.WWDG_SetWindowValue), (28 bytes).
    Removing system_mm32spin2xx_p.o(.rev16_text), (4 bytes).
    Removing system_mm32spin2xx_p.o(.revsh_text), (4 bytes).
    Removing sys.o(.rev16_text), (4 bytes).
    Removing sys.o(.revsh_text), (4 bytes).
    Removing encoder.o(.rev16_text), (4 bytes).
    Removing encoder.o(.revsh_text), (4 bytes).
    Removing encoder.o(i.read_encoder), (56 bytes).
    Removing encoder.o(i.test_encoder_lcd), (236 bytes).
    Removing encoder.o(.data), (4 bytes).
    Removing lcd.o(.rev16_text), (4 bytes).
    Removing lcd.o(.revsh_text), (4 bytes).
    Removing lcd.o(i.TFTSPI_BinRoad), (80 bytes).
    Removing lcd.o(i.TFTSPI_Draw_Circle), (198 bytes).
    Removing lcd.o(i.TFTSPI_Draw_Dot), (28 bytes).
    Removing lcd.o(i.TFTSPI_Draw_Line), (234 bytes).
    Removing lcd.o(i.TFTSPI_Draw_Part), (78 bytes).
    Removing lcd.o(i.TFTSPI_Draw_Rectangle), (72 bytes).
    Removing lcd.o(i.TFTSPI_Fill_Area), (70 bytes).
    Removing lcd.o(i.TFTSPI_P16x16Str), (216 bytes).
    Removing lcd.o(i.TFTSPI_P6X8), (120 bytes).
    Removing lcd.o(i.TFTSPI_P6X8Str), (44 bytes).
    Removing lcd.o(i.TFTSPI_P8X16), (108 bytes).
    Removing lcd.o(i.TFTSPI_P8X16Str), (44 bytes).
    Removing lcd.o(i.TFTSPI_P8X8), (124 bytes).
    Removing lcd.o(i.TFTSPI_P8X8Str), (44 bytes).
    Removing lcd.o(i.TFTSPI_Road), (92 bytes).
    Removing lcd.o(i.TFTSPI_Set_Pos), (78 bytes).
    Removing lcd.o(i.TFTSPI_Show_Battery_Icon), (24 bytes).
    Removing lcd.o(i.TFTSPI_Show_Logo), (28 bytes).
    Removing lcd.o(i.TFTSPI_Show_Pic), (94 bytes).
    Removing lcd.o(i.TFTSPI_Show_Pic2), (70 bytes).
    Removing lcd.o(i.TFTSPI_Show_Title), (40 bytes).
    Removing lcd.o(i.Test_TFT18), (144 bytes).
    Removing lcd.o(.constdata), (29567 bytes).
    Removing motor.o(.rev16_text), (4 bytes).
    Removing motor.o(.revsh_text), (4 bytes).
    Removing motor.o(i.rotate_1), (188 bytes).
    Removing motor.o(i.rotate_2), (188 bytes).
    Removing motor.o(.bss), (32 bytes).
    Removing motor.o(.data), (4 bytes).
    Removing timer.o(.rev16_text), (4 bytes).
    Removing timer.o(.revsh_text), (4 bytes).
    Removing timer.o(.bss), (255 bytes).
    Removing adc.o(.rev16_text), (4 bytes).
    Removing adc.o(.revsh_text), (4 bytes).
    Removing adc.o(i.ADC1_Read_Average), (52 bytes).
    Removing adc.o(i.Test_ADC1), (236 bytes).
    Removing trace.o(.rev16_text), (4 bytes).
    Removing trace.o(.revsh_text), (4 bytes).
    Removing trace.o(i.adc_value_processing), (48 bytes).
    Removing trace.o(i.if_outway), (116 bytes).
    Removing trace.o(i.where_is_the_line), (120 bytes).
    Removing trace.o(.data), (4 bytes).
    Removing speedcontrol.o(.rev16_text), (4 bytes).
    Removing speedcontrol.o(.revsh_text), (4 bytes).
    Removing speedcontrol.o(i.KalmanFilter), (140 bytes).
    Removing speedcontrol.o(i.sum_speed), (320 bytes).
    Removing speedcontrol.o(i.update_pwm), (76 bytes).
    Removing speedcontrol.o(i.update_pwm_left), (268 bytes).
    Removing speedcontrol.o(i.update_pwm_right), (268 bytes).
    Removing speedcontrol.o(.bss), (255 bytes).
    Removing bluetooth.o(.rev16_text), (4 bytes).
    Removing bluetooth.o(.revsh_text), (4 bytes).
    Removing bluetooth.o(i.Test_Bluetooth), (176 bytes).
    Removing bluetooth.o(i.UART_PutChar), (30 bytes).
    Removing bluetooth.o(i.UART_PutStr), (26 bytes).
    Removing bluetooth.o(i.UART_TX_IRQ_Config), (64 bytes).
    Removing bluetooth.o(i._write), (52 bytes).
    Removing bluetooth.o(i.send_error), (2 bytes).
    Removing bluetooth.o(i.send_speed_and_pwm), (176 bytes).
    Removing gpio.o(.rev16_text), (4 bytes).
    Removing gpio.o(.revsh_text), (4 bytes).
    Removing gpio.o(i.beep_on_once), (18 bytes).
    Removing gpio.o(i.if_key_one), (32 bytes).
    Removing gpio.o(i.if_key_two), (32 bytes).
    Removing gpio.o(i.if_key_zero), (32 bytes).
    Removing gpio.o(i.led_toggle), (44 bytes).
    Removing gpio.o(i.start_or_stop), (280 bytes).
    Removing angle.o(.rev16_text), (4 bytes).
    Removing angle.o(.revsh_text), (4 bytes).
    Removing softi2c.o(.rev16_text), (4 bytes).
    Removing softi2c.o(.revsh_text), (4 bytes).
    Removing softi2c.o(i.IIC_ReadByteFromSlave), (76 bytes).
    Removing softi2c.o(i.IIC_WriteMultByteToSlave), (92 bytes).
    Removing buzzerdriver.o(.rev16_text), (4 bytes).
    Removing buzzerdriver.o(.revsh_text), (4 bytes).
    Removing buzzerdriver.o(i.buzzerSetNewFrequency2), (2 bytes).
    Removing buzzerdriver.o(i.music3Play), (2 bytes).
    Removing i2c_mpu9250.o(.rev16_text), (4 bytes).
    Removing i2c_mpu9250.o(.revsh_text), (4 bytes).
    Removing i2c_mpu9250.o(i.MPU9250_Get_Accelerometer), (78 bytes).
    Removing i2c_mpu9250.o(i.MPU9250_Get_Angle), (304 bytes).
    Removing i2c_mpu9250.o(i.MPU9250_Get_Gyroscope), (78 bytes).
    Removing i2c_mpu9250.o(i.MPU9250_Get_Magnetometer), (86 bytes).
    Removing i2c_mpu9250.o(i.MPU9250_Get_Temperature), (96 bytes).
    Removing i2c_mpu9250.o(i.MPU9250_Read_Byte), (24 bytes).
    Removing i2c_mpu9250.o(i.MPU9250_Write_Len), (26 bytes).
    Removing i2c_mpu9250.o(i.Test_MPU9250), (2 bytes).
    Removing i2c_mpu9250.o(i.mget_ms), (2 bytes).
    Removing data_transfer.o(.rev16_text), (4 bytes).
    Removing data_transfer.o(.revsh_text), (4 bytes).
    Removing data_transfer.o(i.ANO_DT_Send_Power), (144 bytes).
    Removing data_transfer.o(i.ANO_DT_Send_RCData), (360 bytes).
    Removing balance.o(.rev16_text), (4 bytes).
    Removing balance.o(.revsh_text), (4 bytes).
    Removing hellodata.o(.rev16_text), (4 bytes).
    Removing hellodata.o(.revsh_text), (4 bytes).
    Removing hellodata.o(i.HelloData_Send_Data), (48 bytes).
    Removing hellodata.o(i.aba), (76 bytes).
    Removing hellodata.o(i.cleara), (36 bytes).
    Removing hellodata.o(i.clearab), (44 bytes).
    Removing hellodata.o(i.filla), (68 bytes).
    Removing hellodata.o(i.fillab), (60 bytes).
    Removing hellodata.o(i.getcount), (24 bytes).
    Removing hellodata.o(i.hello), (288 bytes).
    Removing hellodata.o(i.judgeNormal), (124 bytes).
    Removing hellodata.o(i.printa), (14 bytes).
    Removing hellodata.o(i.printab), (14 bytes).
    Removing hellodata.o(.bss), (248 bytes).
    Removing hellodata.o(.data), (21 bytes).
    Removing control_task.o(.rev16_text), (4 bytes).
    Removing control_task.o(.revsh_text), (4 bytes).
    Removing shell.o(i.shellAdd), (40 bytes).
    Removing shell.o(i.shellHandler), (256 bytes).
    Removing shell.o(i.shellInit), (160 bytes).
    Removing shell.o(i.shellInsertByte), (216 bytes).
    Removing shell.o(i.shellNormalInput), (28 bytes).
    Removing shell.o(i.shellPrint), (54 bytes).
    Removing shell.o(i.shellRun), (104 bytes).
    Removing shell.o(i.shellTask), (36 bytes).
    Removing shell_port.o(.rev16_text), (4 bytes).
    Removing shell_port.o(.revsh_text), (4 bytes).
    Removing shell_port.o(i.User_Shell_Init), (36 bytes).
    Removing shell_port.o(i.User_Shell_Write), (32 bytes).
    Removing shell_port.o(.bss), (620 bytes).
    Removing multi_button.o(i.button_stop), (36 bytes).
    Removing multi_button.o(i.get_button_event), (8 bytes).
    Removing my_multi_button.o(.rev16_text), (4 bytes).
    Removing my_multi_button.o(.revsh_text), (4 bytes).

468 unused section(s) (total 50596 bytes) removed from the image.

==============================================================================

Image Symbol Table

    Local Symbols

    Symbol Name                              Value     Ov Type        Size  Object(Section)

    ../clib/../cmprslib/zerorunl2.c          0x00000000   Number         0  __dczerorl2.o ABSOLUTE
    ../clib/angel/boardlib.s                 0x00000000   Number         0  boardinit3.o ABSOLUTE
    ../clib/angel/boardlib.s                 0x00000000   Number         0  boardinit2.o ABSOLUTE
    ../clib/angel/boardlib.s                 0x00000000   Number         0  boardinit1.o ABSOLUTE
    ../clib/angel/boardlib.s                 0x00000000   Number         0  boardshut.o ABSOLUTE
    ../clib/angel/handlers.s                 0x00000000   Number         0  __scatter_zi.o ABSOLUTE
    ../clib/angel/kernel.s                   0x00000000   Number         0  rtexit2.o ABSOLUTE
    ../clib/angel/kernel.s                   0x00000000   Number         0  __rtentry.o ABSOLUTE
    ../clib/angel/kernel.s                   0x00000000   Number         0  rtexit.o ABSOLUTE
    ../clib/angel/kernel.s                   0x00000000   Number         0  __rtentry2.o ABSOLUTE
    ../clib/angel/kernel.s                   0x00000000   Number         0  __rtentry4.o ABSOLUTE
    ../clib/angel/rt.s                       0x00000000   Number         0  rt_div0.o ABSOLUTE
    ../clib/angel/rt.s                       0x00000000   Number         0  rt_locale.o ABSOLUTE
    ../clib/angel/rt.s                       0x00000000   Number         0  rt_locale_intlibspace.o ABSOLUTE
    ../clib/angel/rt.s                       0x00000000   Number         0  rt_errno_addr.o ABSOLUTE
    ../clib/angel/rt.s                       0x00000000   Number         0  rt_errno_addr_intlibspace.o ABSOLUTE
    ../clib/angel/rt.s                       0x00000000   Number         0  rt_ctype_table.o ABSOLUTE
    ../clib/angel/rt.s                       0x00000000   Number         0  aeabi_ldiv0_sigfpe.o ABSOLUTE
    ../clib/angel/rt.s                       0x00000000   Number         0  rt_raise.o ABSOLUTE
    ../clib/angel/rt.s                       0x00000000   Number         0  aeabi_ldiv0.o ABSOLUTE
    ../clib/angel/rt.s                       0x00000000   Number         0  aeabi_idiv0_sigfpe.o ABSOLUTE
    ../clib/angel/rt.s                       0x00000000   Number         0  aeabi_idiv0.o ABSOLUTE
    ../clib/angel/scatterp.s                 0x00000000   Number         0  __scatter.o ABSOLUTE
    ../clib/angel/startup.s                  0x00000000   Number         0  __main.o ABSOLUTE
    ../clib/angel/sys.s                      0x00000000   Number         0  indicate_semi.o ABSOLUTE
    ../clib/angel/sys.s                      0x00000000   Number         0  sys_stackheap_outer.o ABSOLUTE
    ../clib/angel/sys.s                      0x00000000   Number         0  libspace.o ABSOLUTE
    ../clib/angel/sys.s                      0x00000000   Number         0  tempstk.o ABSOLUTE
    ../clib/angel/sys.s                      0x00000000   Number         0  use_no_semi.o ABSOLUTE
    ../clib/angel/sysapp.c                   0x00000000   Number         0  sys_wrch.o ABSOLUTE
    ../clib/angel/sysapp.c                   0x00000000   Number         0  sys_exit.o ABSOLUTE
    ../clib/angel/sysapp.c                   0x00000000   Number         0  sys_command.o ABSOLUTE
    ../clib/armsys.c                         0x00000000   Number         0  no_argv.o ABSOLUTE
    ../clib/armsys.c                         0x00000000   Number         0  _get_argv_nomalloc.o ABSOLUTE
    ../clib/armsys.c                         0x00000000   Number         0  argv_veneer.o ABSOLUTE
    ../clib/bigflt.c                         0x00000000   Number         0  bigflt0.o ABSOLUTE
    ../clib/btod.c                           0x00000000   Number         0  btod.o ABSOLUTE
    ../clib/division.c                       0x00000000   Number         0  lludiv10.o ABSOLUTE
    ../clib/division.c                       0x00000000   Number         0  rtudiv10.o ABSOLUTE
    ../clib/division.c                       0x00000000   Number         0  lludiv.o ABSOLUTE
    ../clib/division.s                       0x00000000   Number         0  aeabi_sdiv.o ABSOLUTE
    ../clib/division.s                       0x00000000   Number         0  aeabi_sdiv_div0.o ABSOLUTE
    ../clib/fenv.c                           0x00000000   Number         0  _rserrno.o ABSOLUTE
    ../clib/heapalloc.c                      0x00000000   Number         0  hrguard.o ABSOLUTE
    ../clib/heapaux.c                        0x00000000   Number         0  heapauxi.o ABSOLUTE
    ../clib/libinit.s                        0x00000000   Number         0  libshutdown.o ABSOLUTE
    ../clib/libinit.s                        0x00000000   Number         0  libinit2.o ABSOLUTE
    ../clib/libinit.s                        0x00000000   Number         0  libinit.o ABSOLUTE
    ../clib/libinit.s                        0x00000000   Number         0  libshutdown2.o ABSOLUTE
    ../clib/locale.c                         0x00000000   Number         0  _wcrtomb.o ABSOLUTE
    ../clib/locale.s                         0x00000000   Number         0  lc_ctype_c.o ABSOLUTE
    ../clib/locale.s                         0x00000000   Number         0  lc_numeric_c.o ABSOLUTE
    ../clib/memcpset.c                       0x00000000   Number         0  rt_memclr.o ABSOLUTE
    ../clib/misc.s                           0x00000000   Number         0  printf_stubs.o ABSOLUTE
    ../clib/printf.c                         0x00000000   Number         0  _printf_hex_int.o ABSOLUTE
    ../clib/printf.c                         0x00000000   Number         0  _printf_hex_int_ll.o ABSOLUTE
    ../clib/printf.c                         0x00000000   Number         0  _printf_hex_ptr.o ABSOLUTE
    ../clib/printf.c                         0x00000000   Number         0  _printf_hex_int_ptr.o ABSOLUTE
    ../clib/printf.c                         0x00000000   Number         0  _printf_hex_ll_ptr.o ABSOLUTE
    ../clib/printf.c                         0x00000000   Number         0  _printf_hex_int_ll_ptr.o ABSOLUTE
    ../clib/printf.c                         0x00000000   Number         0  _printf_wctomb.o ABSOLUTE
    ../clib/printf.c                         0x00000000   Number         0  _printf_char.o ABSOLUTE
    ../clib/printf.c                         0x00000000   Number         0  __printf_nopercent.o ABSOLUTE
    ../clib/printf.c                         0x00000000   Number         0  _printf_fp_infnan.o ABSOLUTE
    ../clib/printf.c                         0x00000000   Number         0  _printf_fp_hex.o ABSOLUTE
    ../clib/printf.c                         0x00000000   Number         0  vsnprintf.o ABSOLUTE
    ../clib/printf.c                         0x00000000   Number         0  __2sprintf.o ABSOLUTE
    ../clib/printf.c                         0x00000000   Number         0  noretval__2sprintf.o ABSOLUTE
    ../clib/printf.c                         0x00000000   Number         0  __printf.o ABSOLUTE
    ../clib/printf.c                         0x00000000   Number         0  _printf_wchar.o ABSOLUTE
    ../clib/printf.c                         0x00000000   Number         0  _printf_dec.o ABSOLUTE
    ../clib/printf.c                         0x00000000   Number         0  __printf_flags.o ABSOLUTE
    ../clib/printf.c                         0x00000000   Number         0  __printf_ss.o ABSOLUTE
    ../clib/printf.c                         0x00000000   Number         0  __printf_flags_ss.o ABSOLUTE
    ../clib/printf.c                         0x00000000   Number         0  __printf_wp.o ABSOLUTE
    ../clib/printf.c                         0x00000000   Number         0  __printf_flags_wp.o ABSOLUTE
    ../clib/printf.c                         0x00000000   Number         0  __printf_ss_wp.o ABSOLUTE
    ../clib/printf.c                         0x00000000   Number         0  __printf_flags_ss_wp.o ABSOLUTE
    ../clib/printf.c                         0x00000000   Number         0  _printf_truncate.o ABSOLUTE
    ../clib/printf.c                         0x00000000   Number         0  _printf_str.o ABSOLUTE
    ../clib/printf.c                         0x00000000   Number         0  _printf_intcommon.o ABSOLUTE
    ../clib/printf.c                         0x00000000   Number         0  _printf_charcount.o ABSOLUTE
    ../clib/printf.c                         0x00000000   Number         0  _printf_fp_dec.o ABSOLUTE
    ../clib/printf.c                         0x00000000   Number         0  _printf_char_common.o ABSOLUTE
    ../clib/printf.c                         0x00000000   Number         0  _sputc.o ABSOLUTE
    ../clib/printf.c                         0x00000000   Number         0  _snputc.o ABSOLUTE
    ../clib/printf.c                         0x00000000   Number         0  _printf_pad.o ABSOLUTE
    ../clib/printf.c                         0x00000000   Number         0  _printf_longlong_dec.o ABSOLUTE
    ../clib/printf.c                         0x00000000   Number         0  _printf_oct_ll.o ABSOLUTE
    ../clib/printf.c                         0x00000000   Number         0  _printf_oct_int.o ABSOLUTE
    ../clib/printf.c                         0x00000000   Number         0  _printf_oct_int_ll.o ABSOLUTE
    ../clib/printf.c                         0x00000000   Number         0  _printf_hex_ll.o ABSOLUTE
    ../clib/printf_percent.s                 0x00000000   Number         0  _printf_u.o ABSOLUTE
    ../clib/printf_percent.s                 0x00000000   Number         0  _printf_f.o ABSOLUTE
    ../clib/printf_percent.s                 0x00000000   Number         0  _printf_p.o ABSOLUTE
    ../clib/printf_percent.s                 0x00000000   Number         0  _printf_percent.o ABSOLUTE
    ../clib/printf_percent.s                 0x00000000   Number         0  _printf_o.o ABSOLUTE
    ../clib/printf_percent.s                 0x00000000   Number         0  _printf_llo.o ABSOLUTE
    ../clib/printf_percent.s                 0x00000000   Number         0  _printf_e.o ABSOLUTE
    ../clib/printf_percent.s                 0x00000000   Number         0  _printf_c.o ABSOLUTE
    ../clib/printf_percent.s                 0x00000000   Number         0  _printf_i.o ABSOLUTE
    ../clib/printf_percent.s                 0x00000000   Number         0  _printf_llx.o ABSOLUTE
    ../clib/printf_percent.s                 0x00000000   Number         0  _printf_s.o ABSOLUTE
    ../clib/printf_percent.s                 0x00000000   Number         0  _printf_ls.o ABSOLUTE
    ../clib/printf_percent.s                 0x00000000   Number         0  _printf_lc.o ABSOLUTE
    ../clib/printf_percent.s                 0x00000000   Number         0  _printf_n.o ABSOLUTE
    ../clib/printf_percent.s                 0x00000000   Number         0  _printf_l.o ABSOLUTE
    ../clib/printf_percent.s                 0x00000000   Number         0  _printf_ll.o ABSOLUTE
    ../clib/printf_percent.s                 0x00000000   Number         0  _printf_llu.o ABSOLUTE
    ../clib/printf_percent.s                 0x00000000   Number         0  _printf_lld.o ABSOLUTE
    ../clib/printf_percent.s                 0x00000000   Number         0  _printf_d.o ABSOLUTE
    ../clib/printf_percent.s                 0x00000000   Number         0  _printf_percent_end.o ABSOLUTE
    ../clib/printf_percent.s                 0x00000000   Number         0  _printf_a.o ABSOLUTE
    ../clib/printf_percent.s                 0x00000000   Number         0  _printf_g.o ABSOLUTE
    ../clib/printf_percent.s                 0x00000000   Number         0  _printf_x.o ABSOLUTE
    ../clib/printf_percent.s                 0x00000000   Number         0  _printf_lli.o ABSOLUTE
    ../clib/signal.c                         0x00000000   Number         0  defsig_fpe_outer.o ABSOLUTE
    ../clib/signal.c                         0x00000000   Number         0  defsig_exit.o ABSOLUTE
    ../clib/signal.c                         0x00000000   Number         0  defsig_fpe_formal.o ABSOLUTE
    ../clib/signal.c                         0x00000000   Number         0  defsig_rtmem_outer.o ABSOLUTE
    ../clib/signal.c                         0x00000000   Number         0  defsig_rtmem_formal.o ABSOLUTE
    ../clib/signal.c                         0x00000000   Number         0  defsig_stak_inner.o ABSOLUTE
    ../clib/signal.c                         0x00000000   Number         0  defsig_pvfn_inner.o ABSOLUTE
    ../clib/signal.c                         0x00000000   Number         0  defsig_abrt_inner.o ABSOLUTE
    ../clib/signal.c                         0x00000000   Number         0  defsig_segv_inner.o ABSOLUTE
    ../clib/signal.c                         0x00000000   Number         0  defsig_other.o ABSOLUTE
    ../clib/signal.c                         0x00000000   Number         0  defsig_fpe_inner.o ABSOLUTE
    ../clib/signal.c                         0x00000000   Number         0  defsig_rtred_inner.o ABSOLUTE
    ../clib/signal.c                         0x00000000   Number         0  defsig_rtmem_inner.o ABSOLUTE
    ../clib/signal.c                         0x00000000   Number         0  defsig_general.o ABSOLUTE
    ../clib/signal.c                         0x00000000   Number         0  __raise.o ABSOLUTE
    ../clib/signal.c                         0x00000000   Number         0  defsig_cppl_inner.o ABSOLUTE
    ../clib/signal.s                         0x00000000   Number         0  defsig.o ABSOLUTE
    ../clib/stdlib.c                         0x00000000   Number         0  exit.o ABSOLUTE
    ../clib/string.c                         0x00000000   Number         0  strncmp.o ABSOLUTE
    ../clib/string.c                         0x00000000   Number         0  strcmp.o ABSOLUTE
    ../clib/string.c                         0x00000000   Number         0  strlen.o ABSOLUTE
    ../fplib/cfplib/cmpret.c                 0x00000000   Number         0  cmpret.o ABSOLUTE
    ../fplib/cfplib/d2f.c                    0x00000000   Number         0  d2f.o ABSOLUTE
    ../fplib/cfplib/daddsub.c                0x00000000   Number         0  daddsub.o ABSOLUTE
    ../fplib/cfplib/dcmpin.c                 0x00000000   Number         0  dcmpin.o ABSOLUTE
    ../fplib/cfplib/ddiv.c                   0x00000000   Number         0  ddiv.o ABSOLUTE
    ../fplib/cfplib/dmul.c                   0x00000000   Number         0  dmul.o ABSOLUTE
    ../fplib/cfplib/dsqrt.c                  0x00000000   Number         0  dsqrt.o ABSOLUTE
    ../fplib/cfplib/f2d.c                    0x00000000   Number         0  f2d.o ABSOLUTE
    ../fplib/cfplib/fcmpin.c                 0x00000000   Number         0  fcmpin.o ABSOLUTE
    ../fplib/cfplib/fdiv.c                   0x00000000   Number         0  fdiv.o ABSOLUTE
    ../fplib/cfplib/ffix.c                   0x00000000   Number         0  ffixui.o ABSOLUTE
    ../fplib/cfplib/ffix.c                   0x00000000   Number         0  ffixi.o ABSOLUTE
    ../fplib/cfplib/ffix.c                   0x00000000   Number         0  dfixi.o ABSOLUTE
    ../fplib/cfplib/fflt.c                   0x00000000   Number         0  fflti.o ABSOLUTE
    ../fplib/cfplib/fflt.c                   0x00000000   Number         0  dflti.o ABSOLUTE
    ../fplib/cfplib/fpinit.c                 0x00000000   Number         0  fpinit.o ABSOLUTE
    ../fplib/cfplib/ieee_status.c            0x00000000   Number         0  ieee_status.o ABSOLUTE
    ../fplib/cfplib/nan2.c                   0x00000000   Number         0  fnan2.o ABSOLUTE
    ../fplib/cfplib/nan2.c                   0x00000000   Number         0  dnan2.o ABSOLUTE
    ../fplib/cfplib/retnan.c                 0x00000000   Number         0  retnan.o ABSOLUTE
    ../fplib/cfplib/scalbn.c                 0x00000000   Number         0  dscalbn.o ABSOLUTE
    ../fplib/dleqf6m.s                       0x00000000   Number         0  dlef.o ABSOLUTE
    ../fplib/drleqf6m.s                      0x00000000   Number         0  drlef.o ABSOLUTE
    ../fplib/faddsub6m.s                     0x00000000   Number         0  faddsub.o ABSOLUTE
    ../fplib/fleqf6m.s                       0x00000000   Number         0  flef.o ABSOLUTE
    ../fplib/fmul6m.s                        0x00000000   Number         0  fmul.o ABSOLUTE
    ../fplib/frleqf6m.s                      0x00000000   Number         0  frlef.o ABSOLUTE
    ../fplib/printf1.s                       0x00000000   Number         0  printf1.o ABSOLUTE
    ../fplib/printf2.s                       0x00000000   Number         0  printf2.o ABSOLUTE
    ../fplib/printf2a.s                      0x00000000   Number         0  printf2a.o ABSOLUTE
    ../fplib/printf2b.s                      0x00000000   Number         0  printf2b.o ABSOLUTE
    ../fplib/usenofp.s                       0x00000000   Number         0  usenofp.o ABSOLUTE
    ../mathlib/atan.c                        0x00000000   Number         0  atan_x.o ABSOLUTE
    ../mathlib/atan.c                        0x00000000   Number         0  atan.o ABSOLUTE
    ../mathlib/atan2.c                       0x00000000   Number         0  atan2.o ABSOLUTE
    ../mathlib/atan2.c                       0x00000000   Number         0  atan2_x.o ABSOLUTE
    ../mathlib/dunder.c                      0x00000000   Number         0  dunder.o ABSOLUTE
    ../mathlib/fpclassify.c                  0x00000000   Number         0  fpclassify.o ABSOLUTE
    ../mathlib/poly.c                        0x00000000   Number         0  poly.o ABSOLUTE
    ../mathlib/qnan.c                        0x00000000   Number         0  qnan.o ABSOLUTE
    ../mathlib/sqrt.c                        0x00000000   Number         0  sqrt.o ABSOLUTE
    ../mathlib/sqrt.c                        0x00000000   Number         0  sqrt_x.o ABSOLUTE
    ..\HAL_lib\src\HAL_adc.c                 0x00000000   Number         0  hal_adc.o ABSOLUTE
    ..\HAL_lib\src\HAL_comp.c                0x00000000   Number         0  hal_comp.o ABSOLUTE
    ..\HAL_lib\src\HAL_crc.c                 0x00000000   Number         0  hal_crc.o ABSOLUTE
    ..\HAL_lib\src\HAL_div.c                 0x00000000   Number         0  hal_div.o ABSOLUTE
    ..\HAL_lib\src\HAL_dma.c                 0x00000000   Number         0  hal_dma.o ABSOLUTE
    ..\HAL_lib\src\HAL_exti.c                0x00000000   Number         0  hal_exti.o ABSOLUTE
    ..\HAL_lib\src\HAL_flash.c               0x00000000   Number         0  hal_flash.o ABSOLUTE
    ..\HAL_lib\src\HAL_gpio.c                0x00000000   Number         0  hal_gpio.o ABSOLUTE
    ..\HAL_lib\src\HAL_i2c.c                 0x00000000   Number         0  hal_i2c.o ABSOLUTE
    ..\HAL_lib\src\HAL_iwdg.c                0x00000000   Number         0  hal_iwdg.o ABSOLUTE
    ..\HAL_lib\src\HAL_misc.c                0x00000000   Number         0  hal_misc.o ABSOLUTE
    ..\HAL_lib\src\HAL_op.c                  0x00000000   Number         0  hal_op.o ABSOLUTE
    ..\HAL_lib\src\HAL_pwr.c                 0x00000000   Number         0  hal_pwr.o ABSOLUTE
    ..\HAL_lib\src\HAL_rcc.c                 0x00000000   Number         0  hal_rcc.o ABSOLUTE
    ..\HAL_lib\src\HAL_spi.c                 0x00000000   Number         0  hal_spi.o ABSOLUTE
    ..\HAL_lib\src\HAL_syscfg.c              0x00000000   Number         0  hal_syscfg.o ABSOLUTE
    ..\HAL_lib\src\HAL_tim.c                 0x00000000   Number         0  hal_tim.o ABSOLUTE
    ..\HAL_lib\src\HAL_uart.c                0x00000000   Number         0  hal_uart.o ABSOLUTE
    ..\HAL_lib\src\HAL_wwdg.c                0x00000000   Number         0  hal_wwdg.o ABSOLUTE
    ..\HARDWARE\ADC\ADC.c                    0x00000000   Number         0  adc.o ABSOLUTE
    ..\HARDWARE\BALANCE\balance.c            0x00000000   Number         0  balance.o ABSOLUTE
    ..\HARDWARE\BLUETOOTH\bluetooth.c        0x00000000   Number         0  bluetooth.o ABSOLUTE
    ..\HARDWARE\BUZZER\buzzerDriver.c        0x00000000   Number         0  buzzerdriver.o ABSOLUTE
    ..\HARDWARE\CONTROLTASK\control_task.c   0x00000000   Number         0  control_task.o ABSOLUTE
    ..\HARDWARE\GPIO\GPIO.c                  0x00000000   Number         0  gpio.o ABSOLUTE
    ..\HARDWARE\HELLODATA\hellodata.c        0x00000000   Number         0  hellodata.o ABSOLUTE
    ..\HARDWARE\LCD\lcd.c                    0x00000000   Number         0  lcd.o ABSOLUTE
    ..\HARDWARE\MOTOR\motor.c                0x00000000   Number         0  motor.o ABSOLUTE
    ..\HARDWARE\MPU9250\I2C_MPU9250.c        0x00000000   Number         0  i2c_mpu9250.o ABSOLUTE
    ..\HARDWARE\MPU9250\SOFTI2C.c            0x00000000   Number         0  softi2c.o ABSOLUTE
    ..\HARDWARE\MPU9250\angle.c              0x00000000   Number         0  angle.o ABSOLUTE
    ..\HARDWARE\NIMING\data_transfer.c       0x00000000   Number         0  data_transfer.o ABSOLUTE
    ..\HARDWARE\SPEEDCONTROL\speedcontrol.c  0x00000000   Number         0  speedcontrol.o ABSOLUTE
    ..\HARDWARE\TIMER\timer.c                0x00000000   Number         0  timer.o ABSOLUTE
    ..\HARDWARE\TRACE\trace.c                0x00000000   Number         0  trace.o ABSOLUTE
    ..\HARDWARE\encoder\encoder.c            0x00000000   Number         0  encoder.o ABSOLUTE
    ..\HARDWARE\multi_button\multi_button.c  0x00000000   Number         0  multi_button.o ABSOLUTE
    ..\HARDWARE\multi_button\my_multi_button.c 0x00000000   Number         0  my_multi_button.o ABSOLUTE
    ..\STARTUP\startup_MM32SPIN2xx_p.s       0x00000000   Number         0  startup_mm32spin2xx_p.o ABSOLUTE
    ..\STARTUP\sys.c                         0x00000000   Number         0  sys.o ABSOLUTE
    ..\STARTUP\system_MM32SPIN2xx_p.c        0x00000000   Number         0  system_mm32spin2xx_p.o ABSOLUTE
    ..\\HAL_lib\\src\\HAL_adc.c              0x00000000   Number         0  hal_adc.o ABSOLUTE
    ..\\HAL_lib\\src\\HAL_comp.c             0x00000000   Number         0  hal_comp.o ABSOLUTE
    ..\\HAL_lib\\src\\HAL_crc.c              0x00000000   Number         0  hal_crc.o ABSOLUTE
    ..\\HAL_lib\\src\\HAL_div.c              0x00000000   Number         0  hal_div.o ABSOLUTE
    ..\\HAL_lib\\src\\HAL_dma.c              0x00000000   Number         0  hal_dma.o ABSOLUTE
    ..\\HAL_lib\\src\\HAL_exti.c             0x00000000   Number         0  hal_exti.o ABSOLUTE
    ..\\HAL_lib\\src\\HAL_flash.c            0x00000000   Number         0  hal_flash.o ABSOLUTE
    ..\\HAL_lib\\src\\HAL_gpio.c             0x00000000   Number         0  hal_gpio.o ABSOLUTE
    ..\\HAL_lib\\src\\HAL_i2c.c              0x00000000   Number         0  hal_i2c.o ABSOLUTE
    ..\\HAL_lib\\src\\HAL_iwdg.c             0x00000000   Number         0  hal_iwdg.o ABSOLUTE
    ..\\HAL_lib\\src\\HAL_misc.c             0x00000000   Number         0  hal_misc.o ABSOLUTE
    ..\\HAL_lib\\src\\HAL_op.c               0x00000000   Number         0  hal_op.o ABSOLUTE
    ..\\HAL_lib\\src\\HAL_pwr.c              0x00000000   Number         0  hal_pwr.o ABSOLUTE
    ..\\HAL_lib\\src\\HAL_rcc.c              0x00000000   Number         0  hal_rcc.o ABSOLUTE
    ..\\HAL_lib\\src\\HAL_spi.c              0x00000000   Number         0  hal_spi.o ABSOLUTE
    ..\\HAL_lib\\src\\HAL_syscfg.c           0x00000000   Number         0  hal_syscfg.o ABSOLUTE
    ..\\HAL_lib\\src\\HAL_tim.c              0x00000000   Number         0  hal_tim.o ABSOLUTE
    ..\\HAL_lib\\src\\HAL_uart.c             0x00000000   Number         0  hal_uart.o ABSOLUTE
    ..\\HAL_lib\\src\\HAL_wwdg.c             0x00000000   Number         0  hal_wwdg.o ABSOLUTE
    ..\\HARDWARE\\ADC\\ADC.c                 0x00000000   Number         0  adc.o ABSOLUTE
    ..\\HARDWARE\\BALANCE\\balance.c         0x00000000   Number         0  balance.o ABSOLUTE
    ..\\HARDWARE\\BLUETOOTH\\bluetooth.c     0x00000000   Number         0  bluetooth.o ABSOLUTE
    ..\\HARDWARE\\BUZZER\\buzzerDriver.c     0x00000000   Number         0  buzzerdriver.o ABSOLUTE
    ..\\HARDWARE\\CONTROLTASK\\control_task.c 0x00000000   Number         0  control_task.o ABSOLUTE
    ..\\HARDWARE\\GPIO\\GPIO.c               0x00000000   Number         0  gpio.o ABSOLUTE
    ..\\HARDWARE\\HELLODATA\\hellodata.c     0x00000000   Number         0  hellodata.o ABSOLUTE
    ..\\HARDWARE\\LCD\\lcd.c                 0x00000000   Number         0  lcd.o ABSOLUTE
    ..\\HARDWARE\\MOTOR\\motor.c             0x00000000   Number         0  motor.o ABSOLUTE
    ..\\HARDWARE\\MPU9250\\I2C_MPU9250.c     0x00000000   Number         0  i2c_mpu9250.o ABSOLUTE
    ..\\HARDWARE\\MPU9250\\SOFTI2C.c         0x00000000   Number         0  softi2c.o ABSOLUTE
    ..\\HARDWARE\\MPU9250\\angle.c           0x00000000   Number         0  angle.o ABSOLUTE
    ..\\HARDWARE\\NIMING\\data_transfer.c    0x00000000   Number         0  data_transfer.o ABSOLUTE
    ..\\HARDWARE\\SPEEDCONTROL\\speedcontrol.c 0x00000000   Number         0  speedcontrol.o ABSOLUTE
    ..\\HARDWARE\\TIMER\\timer.c             0x00000000   Number         0  timer.o ABSOLUTE
    ..\\HARDWARE\\TRACE\\trace.c             0x00000000   Number         0  trace.o ABSOLUTE
    ..\\HARDWARE\\encoder\\encoder.c         0x00000000   Number         0  encoder.o ABSOLUTE
    ..\\HARDWARE\\multi_button\\my_multi_button.c 0x00000000   Number         0  my_multi_button.o ABSOLUTE
    ..\\STARTUP\\sys.c                       0x00000000   Number         0  sys.o ABSOLUTE
    ..\\STARTUP\\system_MM32SPIN2xx_p.c      0x00000000   Number         0  system_mm32spin2xx_p.o ABSOLUTE
    ..\\letter_shell\\src\\shell_port.c      0x00000000   Number         0  shell_port.o ABSOLUTE
    ..\letter_shell\src\shell.c              0x00000000   Number         0  shell.o ABSOLUTE
    ..\letter_shell\src\shell_cmd_list.c     0x00000000   Number         0  shell_cmd_list.o ABSOLUTE
    ..\letter_shell\src\shell_companion.c    0x00000000   Number         0  shell_companion.o ABSOLUTE
    ..\letter_shell\src\shell_ext.c          0x00000000   Number         0  shell_ext.o ABSOLUTE
    ..\letter_shell\src\shell_port.c         0x00000000   Number         0  shell_port.o ABSOLUTE
    dc.s                                     0x00000000   Number         0  dc.o ABSOLUTE
    main.c                                   0x00000000   Number         0  main.o ABSOLUTE
    main.c                                   0x00000000   Number         0  main.o ABSOLUTE
    RESET                                    0x08000000   Section      180  startup_mm32spin2xx_p.o(RESET)
    !!!main                                  0x080000b4   Section        8  __main.o(!!!main)
    !!!scatter                               0x080000bc   Section       60  __scatter.o(!!!scatter)
    !!handler_zi                             0x080000f8   Section       28  __scatter_zi.o(!!handler_zi)
    .ARM.Collect$$libinit$$00000000          0x08000114   Section        2  libinit.o(.ARM.Collect$$libinit$$00000000)
    .ARM.Collect$$libinit$$00000002          0x08000116   Section        0  libinit2.o(.ARM.Collect$$libinit$$00000002)
    .ARM.Collect$$libinit$$00000004          0x08000116   Section        0  libinit2.o(.ARM.Collect$$libinit$$00000004)
    .ARM.Collect$$libinit$$0000000A          0x08000116   Section        0  libinit2.o(.ARM.Collect$$libinit$$0000000A)
    .ARM.Collect$$libinit$$0000000C          0x08000116   Section        0  libinit2.o(.ARM.Collect$$libinit$$0000000C)
    .ARM.Collect$$libinit$$0000000E          0x08000116   Section        0  libinit2.o(.ARM.Collect$$libinit$$0000000E)
    .ARM.Collect$$libinit$$00000011          0x08000116   Section        0  libinit2.o(.ARM.Collect$$libinit$$00000011)
    .ARM.Collect$$libinit$$00000013          0x08000116   Section        0  libinit2.o(.ARM.Collect$$libinit$$00000013)
    .ARM.Collect$$libinit$$00000015          0x08000116   Section        0  libinit2.o(.ARM.Collect$$libinit$$00000015)
    .ARM.Collect$$libinit$$00000017          0x08000116   Section        0  libinit2.o(.ARM.Collect$$libinit$$00000017)
    .ARM.Collect$$libinit$$00000019          0x08000116   Section        0  libinit2.o(.ARM.Collect$$libinit$$00000019)
    .ARM.Collect$$libinit$$0000001B          0x08000116   Section        0  libinit2.o(.ARM.Collect$$libinit$$0000001B)
    .ARM.Collect$$libinit$$0000001D          0x08000116   Section        0  libinit2.o(.ARM.Collect$$libinit$$0000001D)
    .ARM.Collect$$libinit$$0000001F          0x08000116   Section        0  libinit2.o(.ARM.Collect$$libinit$$0000001F)
    .ARM.Collect$$libinit$$00000021          0x08000116   Section        0  libinit2.o(.ARM.Collect$$libinit$$00000021)
    .ARM.Collect$$libinit$$00000023          0x08000116   Section        0  libinit2.o(.ARM.Collect$$libinit$$00000023)
    .ARM.Collect$$libinit$$00000025          0x08000116   Section        0  libinit2.o(.ARM.Collect$$libinit$$00000025)
    .ARM.Collect$$libinit$$0000002C          0x08000116   Section        0  libinit2.o(.ARM.Collect$$libinit$$0000002C)
    .ARM.Collect$$libinit$$0000002E          0x08000116   Section        0  libinit2.o(.ARM.Collect$$libinit$$0000002E)
    .ARM.Collect$$libinit$$00000030          0x08000116   Section        0  libinit2.o(.ARM.Collect$$libinit$$00000030)
    .ARM.Collect$$libinit$$00000032          0x08000116   Section        0  libinit2.o(.ARM.Collect$$libinit$$00000032)
    .ARM.Collect$$libinit$$00000033          0x08000116   Section        2  libinit2.o(.ARM.Collect$$libinit$$00000033)
    .ARM.Collect$$libshutdown$$00000000      0x08000118   Section        2  libshutdown.o(.ARM.Collect$$libshutdown$$00000000)
    .ARM.Collect$$libshutdown$$00000002      0x0800011a   Section        0  libshutdown2.o(.ARM.Collect$$libshutdown$$00000002)
    .ARM.Collect$$libshutdown$$00000004      0x0800011a   Section        0  libshutdown2.o(.ARM.Collect$$libshutdown$$00000004)
    .ARM.Collect$$libshutdown$$00000007      0x0800011a   Section        0  libshutdown2.o(.ARM.Collect$$libshutdown$$00000007)
    .ARM.Collect$$libshutdown$$0000000A      0x0800011a   Section        0  libshutdown2.o(.ARM.Collect$$libshutdown$$0000000A)
    .ARM.Collect$$libshutdown$$0000000C      0x0800011a   Section        0  libshutdown2.o(.ARM.Collect$$libshutdown$$0000000C)
    .ARM.Collect$$libshutdown$$0000000F      0x0800011a   Section        0  libshutdown2.o(.ARM.Collect$$libshutdown$$0000000F)
    .ARM.Collect$$libshutdown$$00000010      0x0800011a   Section        2  libshutdown2.o(.ARM.Collect$$libshutdown$$00000010)
    .ARM.Collect$$rtentry$$00000000          0x0800011c   Section        0  __rtentry.o(.ARM.Collect$$rtentry$$00000000)
    .ARM.Collect$$rtentry$$00000002          0x0800011c   Section        0  __rtentry2.o(.ARM.Collect$$rtentry$$00000002)
    .ARM.Collect$$rtentry$$00000004          0x0800011c   Section        6  __rtentry4.o(.ARM.Collect$$rtentry$$00000004)
    .ARM.Collect$$rtentry$$00000009          0x08000122   Section        0  __rtentry2.o(.ARM.Collect$$rtentry$$00000009)
    .ARM.Collect$$rtentry$$0000000A          0x08000122   Section        4  __rtentry2.o(.ARM.Collect$$rtentry$$0000000A)
    .ARM.Collect$$rtentry$$0000000C          0x08000126   Section        0  __rtentry2.o(.ARM.Collect$$rtentry$$0000000C)
    .ARM.Collect$$rtentry$$0000000D          0x08000126   Section        8  __rtentry2.o(.ARM.Collect$$rtentry$$0000000D)
    .ARM.Collect$$rtexit$$00000000           0x0800012e   Section        2  rtexit.o(.ARM.Collect$$rtexit$$00000000)
    .ARM.Collect$$rtexit$$00000002           0x08000130   Section        0  rtexit2.o(.ARM.Collect$$rtexit$$00000002)
    .ARM.Collect$$rtexit$$00000003           0x08000130   Section        4  rtexit2.o(.ARM.Collect$$rtexit$$00000003)
    .ARM.Collect$$rtexit$$00000004           0x08000134   Section        6  rtexit2.o(.ARM.Collect$$rtexit$$00000004)
    .text                                    0x0800013c   Section      144  startup_mm32spin2xx_p.o(.text)
    .text                                    0x080001cc   Section        0  lludiv.o(.text)
    .text                                    0x080002d0   Section        0  strlen.o(.text)
    .text                                    0x08000314   Section        0  strncmp.o(.text)
    .text                                    0x080003b4   Section        0  rt_memclr.o(.text)
    .text                                    0x080003f4   Section        0  strcmp.o(.text)
    .text                                    0x0800047c   Section      346  aeabi_sdiv.o(.text)
    .text                                    0x080005d6   Section        0  heapauxi.o(.text)
    .text                                    0x080005dc   Section        0  d2f.o(.text)
    .text                                    0x08000658   Section        0  daddsub.o(.text)
    _dadd1                                   0x08000659   Thumb Code   290  daddsub.o(.text)
    _dsub1                                   0x0800077b   Thumb Code   470  daddsub.o(.text)
    .text                                    0x080009b0   Section        0  ddiv.o(.text)
    .text                                    0x08000df8   Section        0  dfixi.o(.text)
    .text                                    0x08000e64   Section        0  dflti.o(.text)
    .text                                    0x08000ebc   Section        0  dmul.o(.text)
    .text                                    0x08001104   Section        0  f2d.o(.text)
    .text                                    0x08001158   Section        0  fdiv.o(.text)
    .text                                    0x080012b8   Section        0  ffixi.o(.text)
    .text                                    0x08001304   Section        0  fflti.o(.text)
    .text                                    0x08001362   Section        0  _rserrno.o(.text)
    .text                                    0x08001378   Section        0  dcmpin.o(.text)
    .text                                    0x08001408   Section        0  dscalbn.o(.text)
    .text                                    0x08001468   Section        0  dsqrt.o(.text)
    .text                                    0x08001568   Section        0  fcmpin.o(.text)
    .text                                    0x080015cc   Section        8  rt_errno_addr_intlibspace.o(.text)
    .text                                    0x080015d4   Section        0  cmpret.o(.text)
    .text                                    0x08001604   Section        0  dnan2.o(.text)
    .text                                    0x08001618   Section        0  fnan2.o(.text)
    .text                                    0x08001628   Section        8  libspace.o(.text)
    .text                                    0x08001630   Section       62  sys_stackheap_outer.o(.text)
    .text                                    0x0800166e   Section        0  exit.o(.text)
    .text                                    0x0800167e   Section        0  retnan.o(.text)
    .text                                    0x080016dc   Section        0  sys_exit.o(.text)
    .text                                    0x080016e8   Section        2  use_no_semi.o(.text)
    .text                                    0x080016ea   Section        0  indicate_semi.o(.text)
    .text                                    0x080016ea   Section        0  __dczerorl2.o(.text)
    i.ADC1_CHx_Init                          0x08001740   Section        0  adc.o(i.ADC1_CHx_Init)
    i.ADC1_Read                              0x08001804   Section        0  adc.o(i.ADC1_Read)
    i.ADC_Cmd                                0x08001830   Section        0  hal_adc.o(i.ADC_Cmd)
    i.ADC_Init                               0x08001848   Section        0  hal_adc.o(i.ADC_Init)
    i.ADC_RegularChannelConfig               0x08001878   Section        0  hal_adc.o(i.ADC_RegularChannelConfig)
    i.ADC_SoftwareStartConvCmd               0x080018c0   Section        0  hal_adc.o(i.ADC_SoftwareStartConvCmd)
    i.ANO_DT_Data_Exchange                   0x080018dc   Section        0  data_transfer.o(i.ANO_DT_Data_Exchange)
    i.ANO_DT_Data_Receive_Anl                0x08001b30   Section        0  data_transfer.o(i.ANO_DT_Data_Receive_Anl)
    i.ANO_DT_Data_Receive_Prepare            0x08001cb4   Section        0  data_transfer.o(i.ANO_DT_Data_Receive_Prepare)
    i.ANO_DT_Send_Check                      0x08001da0   Section        0  data_transfer.o(i.ANO_DT_Send_Check)
    ANO_DT_Send_Check                        0x08001da1   Thumb Code    62  data_transfer.o(i.ANO_DT_Send_Check)
    i.ANO_DT_Send_Data                       0x08001de4   Section        0  data_transfer.o(i.ANO_DT_Send_Data)
    i.ANO_DT_Send_MotoPWM                    0x08001e14   Section        0  data_transfer.o(i.ANO_DT_Send_MotoPWM)
    i.ANO_DT_Send_PID                        0x08001f44   Section        0  data_transfer.o(i.ANO_DT_Send_PID)
    i.ANO_DT_Send_Senser                     0x08002144   Section        0  data_transfer.o(i.ANO_DT_Send_Senser)
    i.ANO_DT_Send_Status                     0x080022b8   Section        0  data_transfer.o(i.ANO_DT_Send_Status)
    i.ANO_DT_Send_Version                    0x080023f4   Section        0  data_transfer.o(i.ANO_DT_Send_Version)
    i.Abs                                    0x080024bc   Section        0  speedcontrol.o(i.Abs)
    i.AutoCalPllFactor                       0x080024ca   Section        0  system_mm32spin2xx_p.o(i.AutoCalPllFactor)
    i.BTN1_DOUBLE_Click_Handler              0x08002534   Section        0  my_multi_button.o(i.BTN1_DOUBLE_Click_Handler)
    i.BTN1_LONG_PRESS_HOLD_Handler           0x08002558   Section        0  my_multi_button.o(i.BTN1_LONG_PRESS_HOLD_Handler)
    i.BTN1_SINGLE_Click_Handler              0x080025a8   Section        0  my_multi_button.o(i.BTN1_SINGLE_Click_Handler)
    i.BTN2_DOUBLE_Click_Handler              0x080025bc   Section        0  my_multi_button.o(i.BTN2_DOUBLE_Click_Handler)
    i.BTN2_LONG_PRESS_HOLD_Handler           0x080025e0   Section        0  my_multi_button.o(i.BTN2_LONG_PRESS_HOLD_Handler)
    i.BTN2_SINGLE_Click_Handler              0x08002630   Section        0  my_multi_button.o(i.BTN2_SINGLE_Click_Handler)
    i.Bluetooth_Init                         0x08002648   Section        0  bluetooth.o(i.Bluetooth_Init)
    i.GPIO_Init                              0x080026e0   Section        0  hal_gpio.o(i.GPIO_Init)
    i.GPIO_KEY_Init                          0x080027c0   Section        0  gpio.o(i.GPIO_KEY_Init)
    i.GPIO_LED_Init                          0x080027e8   Section        0  gpio.o(i.GPIO_LED_Init)
    i.GPIO_PinAFConfig                       0x08002834   Section        0  hal_gpio.o(i.GPIO_PinAFConfig)
    i.GPIO_ReadInputDataBit                  0x0800287a   Section        0  hal_gpio.o(i.GPIO_ReadInputDataBit)
    i.GPIO_ResetBits                         0x0800288e   Section        0  hal_gpio.o(i.GPIO_ResetBits)
    i.GPIO_SetBits                           0x08002892   Section        0  hal_gpio.o(i.GPIO_SetBits)
    i.GPIO_beep_init                         0x08002898   Section        0  gpio.o(i.GPIO_beep_init)
    i.Get_Angle                              0x080028c0   Section        0  angle.o(i.Get_Angle)
    i.IIC_Ack                                0x080029b8   Section        0  softi2c.o(i.IIC_Ack)
    i.IIC_Init                               0x08002a04   Section        0  softi2c.o(i.IIC_Init)
    i.IIC_NAck                               0x08002a28   Section        0  softi2c.o(i.IIC_NAck)
    i.IIC_ReadByte                           0x08002a74   Section        0  softi2c.o(i.IIC_ReadByte)
    i.IIC_ReadMultByteFromSlave              0x08002adc   Section        0  softi2c.o(i.IIC_ReadMultByteFromSlave)
    i.IIC_SendByte                           0x08002b50   Section        0  softi2c.o(i.IIC_SendByte)
    i.IIC_Start                              0x08002bc0   Section        0  softi2c.o(i.IIC_Start)
    i.IIC_Stop                               0x08002c14   Section        0  softi2c.o(i.IIC_Stop)
    i.IIC_WaitAck                            0x08002c64   Section        0  softi2c.o(i.IIC_WaitAck)
    i.IIC_WriteByteToSlave                   0x08002cbc   Section        0  softi2c.o(i.IIC_WriteByteToSlave)
    i.InitSystick                            0x08002d08   Section        0  sys.o(i.InitSystick)
    i.LED_trun                               0x08002d54   Section        0  gpio.o(i.LED_trun)
    i.MPU9250_Get_Raw_data                   0x08002dd0   Section        0  i2c_mpu9250.o(i.MPU9250_Get_Raw_data)
    i.MPU9250_Init                           0x08002e5a   Section        0  i2c_mpu9250.o(i.MPU9250_Init)
    i.MPU9250_Read_Len                       0x08002ef2   Section        0  i2c_mpu9250.o(i.MPU9250_Read_Len)
    i.MPU9250_SCL_Out                        0x08002f0c   Section        0  softi2c.o(i.MPU9250_SCL_Out)
    i.MPU9250_SDA_In                         0x08002f38   Section        0  softi2c.o(i.MPU9250_SDA_In)
    i.MPU9250_SDA_Out                        0x08002f64   Section        0  softi2c.o(i.MPU9250_SDA_Out)
    i.MPU9250_Set_Accel_Fsr                  0x08002f90   Section        0  i2c_mpu9250.o(i.MPU9250_Set_Accel_Fsr)
    i.MPU9250_Set_Gyro_Fsr                   0x08002fa2   Section        0  i2c_mpu9250.o(i.MPU9250_Set_Gyro_Fsr)
    i.MPU9250_Set_LPF                        0x08002fb4   Section        0  i2c_mpu9250.o(i.MPU9250_Set_LPF)
    i.MPU9250_Set_Rate                       0x08002ff0   Section        0  i2c_mpu9250.o(i.MPU9250_Set_Rate)
    i.MPU9250_Write_Byte                     0x0800302c   Section        0  i2c_mpu9250.o(i.MPU9250_Write_Byte)
    i.NVIC_Init                              0x08003044   Section        0  hal_misc.o(i.NVIC_Init)
    i.NVIC_SetPriority                       0x080030b4   Section        0  sys.o(i.NVIC_SetPriority)
    NVIC_SetPriority                         0x080030b5   Thumb Code   110  sys.o(i.NVIC_SetPriority)
    i.PWM_Init                               0x0800312c   Section        0  motor.o(i.PWM_Init)
    i.PWM_Set_Duty                           0x080032c4   Section        0  motor.o(i.PWM_Set_Duty)
    i.RCC_AHBPeriphClockCmd                  0x080032dc   Section        0  hal_rcc.o(i.RCC_AHBPeriphClockCmd)
    i.RCC_APB1PeriphClockCmd                 0x080032fc   Section        0  hal_rcc.o(i.RCC_APB1PeriphClockCmd)
    i.RCC_APB2PeriphClockCmd                 0x0800331c   Section        0  hal_rcc.o(i.RCC_APB2PeriphClockCmd)
    i.RCC_ConfigInit                         0x0800333c   Section        0  sys.o(i.RCC_ConfigInit)
    i.RCC_GetClocksFreq                      0x08003360   Section        0  hal_rcc.o(i.RCC_GetClocksFreq)
    i.SetSysClock                            0x0800345c   Section        0  system_mm32spin2xx_p.o(i.SetSysClock)
    SetSysClock                              0x0800345d   Thumb Code     8  system_mm32spin2xx_p.o(i.SetSysClock)
    i.SetSysClockToXX_HSI                    0x08003464   Section        0  system_mm32spin2xx_p.o(i.SetSysClockToXX_HSI)
    SetSysClockToXX_HSI                      0x08003465   Thumb Code   276  system_mm32spin2xx_p.o(i.SetSysClockToXX_HSI)
    i.SysTick_CLKSourceConfig                0x08003594   Section        0  hal_misc.o(i.SysTick_CLKSourceConfig)
    i.SysTick_Handler                        0x080035b8   Section        0  sys.o(i.SysTick_Handler)
    i.SystemInit                             0x080035f0   Section        0  system_mm32spin2xx_p.o(i.SystemInit)
    i.TFTSPI_Addr_Rst                        0x08003654   Section        0  lcd.o(i.TFTSPI_Addr_Rst)
    i.TFTSPI_CLS                             0x0800369a   Section        0  lcd.o(i.TFTSPI_CLS)
    i.TFTSPI_Init                            0x080036c0   Section        0  lcd.o(i.TFTSPI_Init)
    i.TFTSPI_Write_Byte                      0x080038c0   Section        0  lcd.o(i.TFTSPI_Write_Byte)
    i.TFTSPI_Write_Cmd                       0x08003924   Section        0  lcd.o(i.TFTSPI_Write_Cmd)
    i.TFTSPI_Write_Word                      0x08003988   Section        0  lcd.o(i.TFTSPI_Write_Word)
    i.TIM14_IRQHandler                       0x080039ec   Section        0  timer.o(i.TIM14_IRQHandler)
    i.TIM16_IRQHandler                       0x08003a08   Section        0  timer.o(i.TIM16_IRQHandler)
    i.TIM17_IRQHandler                       0x08003d60   Section        0  timer.o(i.TIM17_IRQHandler)
    i.TIM1_BRK_UP_TRG_COM_IRQHandler         0x08003d7c   Section        0  timer.o(i.TIM1_BRK_UP_TRG_COM_IRQHandler)
    i.TIMER_InitConfig                       0x08003d98   Section        0  timer.o(i.TIMER_InitConfig)
    i.TIM_ARRPreloadConfig                   0x08003ecc   Section        0  hal_tim.o(i.TIM_ARRPreloadConfig)
    i.TIM_ClearITPendingBit                  0x08003ee8   Section        0  hal_tim.o(i.TIM_ClearITPendingBit)
    i.TIM_Cmd                                0x08003ef0   Section        0  hal_tim.o(i.TIM_Cmd)
    i.TIM_CtrlPWMOutputs                     0x08003f0c   Section        0  hal_tim.o(i.TIM_CtrlPWMOutputs)
    i.TIM_GetITStatus                        0x08003f26   Section        0  hal_tim.o(i.TIM_GetITStatus)
    i.TIM_ITConfig                           0x08003f4c   Section        0  hal_tim.o(i.TIM_ITConfig)
    i.TIM_OC1Init                            0x08003f60   Section        0  hal_tim.o(i.TIM_OC1Init)
    i.TIM_OC1PreloadConfig                   0x08003ff8   Section        0  hal_tim.o(i.TIM_OC1PreloadConfig)
    i.TIM_OC2Init                            0x08004014   Section        0  hal_tim.o(i.TIM_OC2Init)
    i.TIM_OC2PreloadConfig                   0x080040cc   Section        0  hal_tim.o(i.TIM_OC2PreloadConfig)
    i.TIM_OC3Init                            0x080040e8   Section        0  hal_tim.o(i.TIM_OC3Init)
    i.TIM_OC3PreloadConfig                   0x08004190   Section        0  hal_tim.o(i.TIM_OC3PreloadConfig)
    i.TIM_OC4Init                            0x080041ac   Section        0  hal_tim.o(i.TIM_OC4Init)
    i.TIM_OC4PreloadConfig                   0x0800422c   Section        0  hal_tim.o(i.TIM_OC4PreloadConfig)
    i.TIM_TimeBaseInit                       0x08004248   Section        0  hal_tim.o(i.TIM_TimeBaseInit)
    i.UART1_IRQHandler                       0x080042c4   Section        0  bluetooth.o(i.UART1_IRQHandler)
    i.UART_ClearITPendingBit                 0x080042f8   Section        0  hal_uart.o(i.UART_ClearITPendingBit)
    i.UART_Cmd                               0x080042fc   Section        0  hal_uart.o(i.UART_Cmd)
    i.UART_GetChar                           0x08004318   Section        0  bluetooth.o(i.UART_GetChar)
    i.UART_GetFlagStatus                     0x08004326   Section        0  hal_uart.o(i.UART_GetFlagStatus)
    i.UART_ITConfig                          0x0800433a   Section        0  hal_uart.o(i.UART_ITConfig)
    i.UART_Init                              0x08004350   Section        0  hal_uart.o(i.UART_Init)
    i.UART_RX_IRQ_Config                     0x080043cc   Section        0  bluetooth.o(i.UART_RX_IRQ_Config)
    i.UART_ReceiveData                       0x0800440c   Section        0  hal_uart.o(i.UART_ReceiveData)
    i.UART_SendData                          0x08004414   Section        0  hal_uart.o(i.UART_SendData)
    i.Yijielvbo                              0x0800441c   Section        0  angle.o(i.Yijielvbo)
    i.__ARM_common_switch8                   0x080044b0   Section        0  adc.o(i.__ARM_common_switch8)
    i.__ARM_fpclassify                       0x080044cc   Section        0  fpclassify.o(i.__ARM_fpclassify)
    i.__kernel_poly                          0x080044f8   Section        0  poly.o(i.__kernel_poly)
    i.__mathlib_dbl_infnan                   0x080045a4   Section        0  dunder.o(i.__mathlib_dbl_infnan)
    i.__mathlib_dbl_infnan2                  0x080045ae   Section        0  dunder.o(i.__mathlib_dbl_infnan2)
    i.__mathlib_dbl_underflow                0x080045b8   Section        0  dunder.o(i.__mathlib_dbl_underflow)
    i.adc_init                               0x080045cc   Section        0  adc.o(i.adc_init)
    i.angle_hanlder                          0x08004600   Section        0  angle.o(i.angle_hanlder)
    i.angle_is_normal                        0x08004620   Section        0  balance.o(i.angle_is_normal)
    i.atan                                   0x08004668   Section        0  atan.o(i.atan)
    i.atan2                                  0x08004884   Section        0  atan2.o(i.atan2)
    i.balance                                0x080049fc   Section        0  balance.o(i.balance)
    i.beep_OFF                               0x08004abc   Section        0  gpio.o(i.beep_OFF)
    i.beep_ON                                0x08004acc   Section        0  gpio.o(i.beep_ON)
    i.beep_briefly_on                        0x08004adc   Section        0  gpio.o(i.beep_briefly_on)
    i.button_attach                          0x08004b16   Section        0  multi_button.o(i.button_attach)
    i.button_handler                         0x08004b22   Section        0  multi_button.o(i.button_handler)
    i.button_init                            0x08004d6e   Section        0  multi_button.o(i.button_init)
    i.button_start                           0x08004db0   Section        0  multi_button.o(i.button_start)
    i.button_ticks                           0x08004ddc   Section        0  multi_button.o(i.button_ticks)
    i.buzzerDriverInit                       0x08004df8   Section        0  buzzerdriver.o(i.buzzerDriverInit)
    i.buzzerSetNewFrequency                  0x08004e60   Section        0  buzzerdriver.o(i.buzzerSetNewFrequency)
    i.cacl_error_1                           0x08004ea4   Section        0  speedcontrol.o(i.cacl_error_1)
    i.delayms                                0x08004fd0   Section        0  sys.o(i.delayms)
    i.delayms_mpu9250                        0x08005020   Section        0  i2c_mpu9250.o(i.delayms_mpu9250)
    i.encoder_init                           0x08005034   Section        0  encoder.o(i.encoder_init)
    i.error_processing                       0x080051f0   Section        0  trace.o(i.error_processing)
    i.float_Abs                              0x08005224   Section        0  speedcontrol.o(i.float_Abs)
    i.iic_delay                              0x08005240   Section        0  softi2c.o(i.iic_delay)
    i.judgeOandY                             0x08005254   Section        0  control_task.o(i.judgeOandY)
    i.lq_tft_delayms                         0x080052dc   Section        0  lcd.o(i.lq_tft_delayms)
    lq_tft_delayms                           0x080052dd   Thumb Code    44  lcd.o(i.lq_tft_delayms)
    i.main                                   0x08005308   Section        0  main.o(i.main)
    i.motor_run                              0x0800535c   Section        0  motor.o(i.motor_run)
    i.music2Play                             0x080053dc   Section        0  buzzerdriver.o(i.music2Play)
    i.music4Play                             0x08005434   Section        0  buzzerdriver.o(i.music4Play)
    i.musicPlay                              0x0800550c   Section        0  buzzerdriver.o(i.musicPlay)
    i.my_button_init                         0x080055d4   Section        0  my_multi_button.o(i.my_button_init)
    i.mysys_init                             0x0800565c   Section        0  sys.o(i.mysys_init)
    i.nvic_init                              0x0800569c   Section        0  sys.o(i.nvic_init)
    i.read_button1_GPIO                      0x080056b4   Section        0  my_multi_button.o(i.read_button1_GPIO)
    i.read_button2_GPIO                      0x080056c4   Section        0  my_multi_button.o(i.read_button2_GPIO)
    i.set_pwm                                0x080056d4   Section        0  balance.o(i.set_pwm)
    i.shellBackspace                         0x08005780   Section        0  shell.o(i.shellBackspace)
    i.shellCheckPassword                     0x08005790   Section        0  shell.o(i.shellCheckPassword)
    shellCheckPassword                       0x08005791   Thumb Code    64  shell.o(i.shellCheckPassword)
    i.shellCheckPermission                   0x080057d4   Section        0  shell.o(i.shellCheckPermission)
    i.shellClear                             0x08005814   Section        0  shell.o(i.shellClear)
    i.shellClearCommandLine                  0x08005830   Section        0  shell.o(i.shellClearCommandLine)
    i.shellCmds                              0x08005858   Section        0  shell.o(i.shellCmds)
    i.shellDelete                            0x0800586c   Section        0  shell.o(i.shellDelete)
    i.shellDeleteByte                        0x0800587c   Section        0  shell.o(i.shellDeleteByte)
    i.shellDeleteCommandLine                 0x0800595c   Section        0  shell.o(i.shellDeleteCommandLine)
    i.shellDown                              0x0800597c   Section        0  shell.o(i.shellDown)
    i.shellEnter                             0x0800598c   Section        0  shell.o(i.shellEnter)
    i.shellExec                              0x080059a0   Section        0  shell.o(i.shellExec)
    i.shellExtNumType                        0x08005a1c   Section        0  shell_ext.o(i.shellExtNumType)
    shellExtNumType                          0x08005a1d   Thumb Code    90  shell_ext.o(i.shellExtNumType)
    i.shellExtParseChar                      0x08005a76   Section        0  shell_ext.o(i.shellExtParseChar)
    shellExtParseChar                        0x08005a77   Thumb Code    70  shell_ext.o(i.shellExtParseChar)
    i.shellExtParseNumber                    0x08005abc   Section        0  shell_ext.o(i.shellExtParseNumber)
    shellExtParseNumber                      0x08005abd   Thumb Code   230  shell_ext.o(i.shellExtParseNumber)
    i.shellExtParsePara                      0x08005ba2   Section        0  shell_ext.o(i.shellExtParsePara)
    i.shellExtParseString                    0x08005bfe   Section        0  shell_ext.o(i.shellExtParseString)
    shellExtParseString                      0x08005bff   Thumb Code    74  shell_ext.o(i.shellExtParseString)
    i.shellExtParseVar                       0x08005c48   Section        0  shell_ext.o(i.shellExtParseVar)
    shellExtParseVar                         0x08005c49   Thumb Code    38  shell_ext.o(i.shellExtParseVar)
    i.shellExtRun                            0x08005c6e   Section        0  shell_ext.o(i.shellExtRun)
    i.shellExtToNum                          0x08005d3c   Section        0  shell_ext.o(i.shellExtToNum)
    shellExtToNum                            0x08005d3d   Thumb Code    54  shell_ext.o(i.shellExtToNum)
    i.shellGetCommandDesc                    0x08005d72   Section        0  shell.o(i.shellGetCommandDesc)
    shellGetCommandDesc                      0x08005d73   Thumb Code    48  shell.o(i.shellGetCommandDesc)
    i.shellGetCommandName                    0x08005da4   Section        0  shell.o(i.shellGetCommandName)
    shellGetCommandName                      0x08005da5   Thumb Code    76  shell.o(i.shellGetCommandName)
    i.shellGetCurrent                        0x08005df4   Section        0  shell.o(i.shellGetCurrent)
    i.shellGetVarValue                       0x08005e28   Section        0  shell.o(i.shellGetVarValue)
    i.shellHelp                              0x08005e80   Section        0  shell.o(i.shellHelp)
    i.shellHistory                           0x08005f08   Section        0  shell.o(i.shellHistory)
    shellHistory                             0x08005f09   Thumb Code   192  shell.o(i.shellHistory)
    i.shellHistoryAdd                        0x08005fc8   Section        0  shell.o(i.shellHistoryAdd)
    shellHistoryAdd                          0x08005fc9   Thumb Code   128  shell.o(i.shellHistoryAdd)
    i.shellKeys                              0x08006048   Section        0  shell.o(i.shellKeys)
    i.shellLeft                              0x0800605c   Section        0  shell.o(i.shellLeft)
    i.shellListAll                           0x08006076   Section        0  shell.o(i.shellListAll)
    i.shellListCommand                       0x08006084   Section        0  shell.o(i.shellListCommand)
    i.shellListItem                          0x080060d0   Section        0  shell.o(i.shellListItem)
    i.shellListKey                           0x080061c8   Section        0  shell.o(i.shellListKey)
    i.shellListUser                          0x08006224   Section        0  shell.o(i.shellListUser)
    i.shellListVar                           0x08006280   Section        0  shell.o(i.shellListVar)
    i.shellParserParam                       0x080062dc   Section        0  shell.o(i.shellParserParam)
    shellParserParam                         0x080062dd   Thumb Code   150  shell.o(i.shellParserParam)
    i.shellRemoveParamQuotes                 0x08006372   Section        0  shell.o(i.shellRemoveParamQuotes)
    shellRemoveParamQuotes                   0x08006373   Thumb Code   104  shell.o(i.shellRemoveParamQuotes)
    i.shellRight                             0x080063da   Section        0  shell.o(i.shellRight)
    i.shellRunCommand                        0x080063f8   Section        0  shell.o(i.shellRunCommand)
    i.shellSeekCommand                       0x080064ac   Section        0  shell.o(i.shellSeekCommand)
    i.shellSetUser                           0x08006530   Section        0  shell.o(i.shellSetUser)
    shellSetUser                             0x08006531   Thumb Code   100  shell.o(i.shellSetUser)
    i.shellSetVar                            0x08006598   Section        0  shell.o(i.shellSetVar)
    i.shellSetVarValue                       0x08006604   Section        0  shell.o(i.shellSetVarValue)
    i.shellShowVar                           0x0800669c   Section        0  shell.o(i.shellShowVar)
    shellShowVar                             0x0800669d   Thumb Code   164  shell.o(i.shellShowVar)
    i.shellStringCompare                     0x08006760   Section        0  shell.o(i.shellStringCompare)
    shellStringCompare                       0x08006761   Thumb Code    46  shell.o(i.shellStringCompare)
    i.shellStringCopy                        0x0800678e   Section        0  shell.o(i.shellStringCopy)
    shellStringCopy                          0x0800678f   Thumb Code    24  shell.o(i.shellStringCopy)
    i.shellTab                               0x080067a8   Section        0  shell.o(i.shellTab)
    i.shellToDec                             0x080068cc   Section        0  shell.o(i.shellToDec)
    i.shellToHex                             0x08006926   Section        0  shell.o(i.shellToHex)
    i.shellUp                                0x0800695e   Section        0  shell.o(i.shellUp)
    i.shellUsers                             0x0800696c   Section        0  shell.o(i.shellUsers)
    i.shellVars                              0x08006980   Section        0  shell.o(i.shellVars)
    i.shellWriteByte                         0x08006994   Section        0  shell.o(i.shellWriteByte)
    shellWriteByte                           0x08006995   Thumb Code    14  shell.o(i.shellWriteByte)
    i.shellWriteCommandDesc                  0x080069a2   Section        0  shell.o(i.shellWriteCommandDesc)
    shellWriteCommandDesc                    0x080069a3   Thumb Code    84  shell.o(i.shellWriteCommandDesc)
    i.shellWriteCommandLine                  0x080069f8   Section        0  shell.o(i.shellWriteCommandLine)
    shellWriteCommandLine                    0x080069f9   Thumb Code    90  shell.o(i.shellWriteCommandLine)
    i.shellWriteReturnValue                  0x08006a68   Section        0  shell.o(i.shellWriteReturnValue)
    shellWriteReturnValue                    0x08006a69   Thumb Code    98  shell.o(i.shellWriteReturnValue)
    i.shellWriteString                       0x08006af0   Section        0  shell.o(i.shellWriteString)
    i.sqrt                                   0x08006b18   Section        0  sqrt.o(i.sqrt)
    i.tft18delay_1us                         0x08006b60   Section        0  lcd.o(i.tft18delay_1us)
    i.turn                                   0x08006b70   Section        0  balance.o(i.turn)
    i.velocity                               0x08006be0   Section        0  balance.o(i.velocity)
    x$fpl$dleqf                              0x08006d0c   Section      100  dlef.o(x$fpl$dleqf)
    x$fpl$drleqf                             0x08006d70   Section      104  drlef.o(x$fpl$drleqf)
    x$fpl$fadd                               0x08006dd8   Section      140  faddsub.o(x$fpl$fadd)
    _fadd1                                   0x08006de5   Thumb Code     0  faddsub.o(x$fpl$fadd)
    x$fpl$fleqf                              0x08006e64   Section       84  flef.o(x$fpl$fleqf)
    x$fpl$fmul                               0x08006eb8   Section      176  fmul.o(x$fpl$fmul)
    x$fpl$frleqf                             0x08006f68   Section       88  frlef.o(x$fpl$frleqf)
    x$fpl$fsub                               0x08006fc0   Section      208  faddsub.o(x$fpl$fsub)
    _fsub1                                   0x08006fcd   Thumb Code     0  faddsub.o(x$fpl$fsub)
    .constdata                               0x08007090   Section       28  timer.o(.constdata)
    x$fpl$usenofp                            0x08007090   Section        0  usenofp.o(x$fpl$usenofp)
    .constdata                               0x080070ac   Section       14  angle.o(.constdata)
    .constdata                               0x080070bc   Section     5128  buzzerdriver.o(.constdata)
    .constdata                               0x080084c4   Section      227  shell.o(.constdata)
    .constdata                               0x080085a7   Section      128  ddiv.o(.constdata)
    ddiv_reciptbl                            0x080085a7   Data         128  ddiv.o(.constdata)
    .constdata                               0x08008627   Section       64  fdiv.o(.constdata)
    fdiv_tab                                 0x08008627   Data          64  fdiv.o(.constdata)
    .constdata                               0x08008668   Section      152  atan.o(.constdata)
    atanhi                                   0x08008668   Data          32  atan.o(.constdata)
    atanlo                                   0x08008688   Data          32  atan.o(.constdata)
    aTodd                                    0x080086a8   Data          40  atan.o(.constdata)
    aTeven                                   0x080086d0   Data          48  atan.o(.constdata)
    .constdata                               0x08008700   Section        8  qnan.o(.constdata)
    .conststring                             0x08008708   Section      677  shell.o(.conststring)
    shellCommand                             0x080089d0   Section       16  angle.o(shellCommand)
    __tagsym$$used                           0x080089d0   Number         0  angle.o(shellCommand)
    shellCommand                             0x080089e0   Section       16  buzzerdriver.o(shellCommand)
    __tagsym$$used                           0x080089e0   Number         0  buzzerdriver.o(shellCommand)
    shellCommand                             0x080089f0   Section      288  shell.o(shellCommand)
    __tagsym$$used                           0x080089f0   Number         0  shell.o(shellCommand)
    __tagsym$$used                           0x08008a00   Number         0  shell.o(shellCommand)
    __tagsym$$used                           0x08008a10   Number         0  shell.o(shellCommand)
    __tagsym$$used                           0x08008a20   Number         0  shell.o(shellCommand)
    __tagsym$$used                           0x08008a30   Number         0  shell.o(shellCommand)
    __tagsym$$used                           0x08008a40   Number         0  shell.o(shellCommand)
    __tagsym$$used                           0x08008a50   Number         0  shell.o(shellCommand)
    __tagsym$$used                           0x08008a60   Number         0  shell.o(shellCommand)
    __tagsym$$used                           0x08008a70   Number         0  shell.o(shellCommand)
    __tagsym$$used                           0x08008a80   Number         0  shell.o(shellCommand)
    __tagsym$$used                           0x08008a90   Number         0  shell.o(shellCommand)
    __tagsym$$used                           0x08008aa0   Number         0  shell.o(shellCommand)
    __tagsym$$used                           0x08008ab0   Number         0  shell.o(shellCommand)
    __tagsym$$used                           0x08008ac0   Number         0  shell.o(shellCommand)
    __tagsym$$used                           0x08008ad0   Number         0  shell.o(shellCommand)
    __tagsym$$used                           0x08008ae0   Number         0  shell.o(shellCommand)
    __tagsym$$used                           0x08008af0   Number         0  shell.o(shellCommand)
    __tagsym$$used                           0x08008b00   Number         0  shell.o(shellCommand)
    .data                                    0x20000000   Section       16  hal_rcc.o(.data)
    APBAHBPrescTable                         0x20000000   Data          16  hal_rcc.o(.data)
    .data                                    0x20000010   Section       20  system_mm32spin2xx_p.o(.data)
    .data                                    0x20000024   Section       16  sys.o(.data)
    fac_us                                   0x20000024   Data           1  sys.o(.data)
    fac_ms                                   0x20000026   Data           2  sys.o(.data)
    .data                                    0x20000034   Section       52  timer.o(.data)
    adc_left_last                            0x20000054   Data           4  timer.o(.data)
    adc_left_filt_flag                       0x20000058   Data           4  timer.o(.data)
    adc_right_last                           0x2000005c   Data           4  timer.o(.data)
    adc_right_filt_flag                      0x20000060   Data           4  timer.o(.data)
    buzzer_on_flag                           0x20000064   Data           1  timer.o(.data)
    buzzer_tick                              0x20000065   Data           1  timer.o(.data)
    isInit                                   0x20000066   Data           1  timer.o(.data)
    isInit                                   0x20000067   Data           1  timer.o(.data)
    .data                                    0x20000068   Section       32  adc.o(.data)
    .data                                    0x20000088   Section      176  speedcontrol.o(.data)
    pwm_1                                    0x200000d8   Data           4  speedcontrol.o(.data)
    error_1                                  0x200000dc   Data           4  speedcontrol.o(.data)
    last_error_1                             0x200000e0   Data           4  speedcontrol.o(.data)
    prev_error_1                             0x200000e4   Data           4  speedcontrol.o(.data)
    kp_left                                  0x200000e8   Data           4  speedcontrol.o(.data)
    ki_left                                  0x200000ec   Data           4  speedcontrol.o(.data)
    kd_left                                  0x200000f0   Data           4  speedcontrol.o(.data)
    pwm_2                                    0x200000f4   Data           4  speedcontrol.o(.data)
    error_2                                  0x200000f8   Data           4  speedcontrol.o(.data)
    last_error_2                             0x200000fc   Data           4  speedcontrol.o(.data)
    prev_error_2                             0x20000100   Data           4  speedcontrol.o(.data)
    kp_right                                 0x20000104   Data           4  speedcontrol.o(.data)
    ki_right                                 0x20000108   Data           4  speedcontrol.o(.data)
    kd_right                                 0x2000010c   Data           4  speedcontrol.o(.data)
    prevData                                 0x20000110   Data           4  speedcontrol.o(.data)
    p                                        0x20000114   Data           4  speedcontrol.o(.data)
    q                                        0x20000118   Data           4  speedcontrol.o(.data)
    r                                        0x2000011c   Data           4  speedcontrol.o(.data)
    kGain                                    0x20000120   Data           4  speedcontrol.o(.data)
    EstimateCovariance                       0x20000124   Data           4  speedcontrol.o(.data)
    MeasureCovariance                        0x20000128   Data           4  speedcontrol.o(.data)
    last_error                               0x20000130   Data           8  speedcontrol.o(.data)
    .data                                    0x20000138   Section        4  gpio.o(.data)
    IF_LED_B10_TURN                          0x20000139   Data           1  gpio.o(.data)
    IF_LED_C4_TURN                           0x2000013a   Data           1  gpio.o(.data)
    i                                        0x2000013b   Data           1  gpio.o(.data)
    .data                                    0x2000013c   Section       28  angle.o(.data)
    .data                                    0x20000158   Section        4  softi2c.o(.data)
    .data                                    0x2000015c   Section      107  buzzerdriver.o(.data)
    cnt_                                     0x200001b0   Data           4  buzzerdriver.o(.data)
    noteIndex                                0x200001b4   Data           4  buzzerdriver.o(.data)
    isInit                                   0x200001b8   Data           1  buzzerdriver.o(.data)
    isInit                                   0x200001b9   Data           1  buzzerdriver.o(.data)
    isInit                                   0x200001ba   Data           1  buzzerdriver.o(.data)
    cnt_                                     0x200001bc   Data           4  buzzerdriver.o(.data)
    noteIndex                                0x200001c0   Data           4  buzzerdriver.o(.data)
    isInit                                   0x200001c4   Data           1  buzzerdriver.o(.data)
    isInit                                   0x200001c5   Data           1  buzzerdriver.o(.data)
    isInit                                   0x200001c6   Data           1  buzzerdriver.o(.data)
    .data                                    0x200001c7   Section        9  data_transfer.o(.data)
    cnt                                      0x200001c7   Data           1  data_transfer.o(.data)
    senser_cnt                               0x200001c8   Data           1  data_transfer.o(.data)
    status_cnt                               0x200001c9   Data           1  data_transfer.o(.data)
    rcdata_cnt                               0x200001ca   Data           1  data_transfer.o(.data)
    motopwm_cnt                              0x200001cb   Data           1  data_transfer.o(.data)
    power_cnt                                0x200001cc   Data           1  data_transfer.o(.data)
    _data_len                                0x200001cd   Data           1  data_transfer.o(.data)
    _data_cnt                                0x200001ce   Data           1  data_transfer.o(.data)
    state                                    0x200001cf   Data           1  data_transfer.o(.data)
    .data                                    0x200001d0   Section       76  balance.o(.data)
    gyro                                     0x200001fc   Data           4  balance.o(.data)
    Velocity                                 0x20000200   Data           4  balance.o(.data)
    Encoder_Least                            0x20000204   Data           4  balance.o(.data)
    Encoder                                  0x20000208   Data           4  balance.o(.data)
    Movement                                 0x2000020c   Data           4  balance.o(.data)
    Turn                                     0x20000210   Data           4  balance.o(.data)
    Kp                                       0x20000214   Data           4  balance.o(.data)
    Kd                                       0x20000218   Data           4  balance.o(.data)
    .data                                    0x2000021c   Section       12  control_task.o(.data)
    .data                                    0x20000228   Section       84  shell.o(.data)
    shellText                                0x20000228   Data          84  shell.o(.data)
    .data                                    0x2000027c   Section        1  shell_port.o(.data)
    .data                                    0x20000280   Section        4  multi_button.o(.data)
    head_handle                              0x20000280   Data           4  multi_button.o(.data)
    .data                                    0x20000284   Section        1  my_multi_button.o(.data)
    .bss                                     0x20000288   Section       14  angle.o(.bss)
    .bss                                     0x20000296   Section      112  data_transfer.o(.bss)
    RxBuffer                                 0x200002d4   Data          50  data_transfer.o(.bss)
    .bss                                     0x20000308   Section       29  shell.o(.bss)
    shellList                                0x20000308   Data          20  shell.o(.bss)
    buffer                                   0x2000031c   Data           9  shell.o(.bss)
    .bss                                     0x20000328   Section       80  my_multi_button.o(.bss)
    .bss                                     0x20000378   Section       96  libspace.o(.bss)
    HEAP                                     0x200003d8   Section      512  startup_mm32spin2xx_p.o(HEAP)
    Heap_Mem                                 0x200003d8   Data         512  startup_mm32spin2xx_p.o(HEAP)
    STACK                                    0x200005d8   Section     1024  startup_mm32spin2xx_p.o(STACK)
    Stack_Mem                                0x200005d8   Data        1024  startup_mm32spin2xx_p.o(STACK)
    __initial_sp                             0x200009d8   Data           0  startup_mm32spin2xx_p.o(STACK)

    Global Symbols

    Symbol Name                              Value     Ov Type        Size  Object(Section)

    BuildAttributes$$THM_ISAv3M$S$PE$A:L22$X:L11$S22$IEEE1$IW$USESV6$~STKCKD$USESV7$~SHL$OTIME$ROPI$IEEEX$EBA8$UX$STANDARDLIB$REQ8$PRES8$EABIv2 0x00000000   Number         0  anon$$obj.o ABSOLUTE
    __ARM_use_no_argv                        0x00000000   Number         0  main.o ABSOLUTE
    _printf_flags                            0x00000000   Number         0  printf_stubs.o ABSOLUTE
    _printf_return_value                     0x00000000   Number         0  printf_stubs.o ABSOLUTE
    _printf_sizespec                         0x00000000   Number         0  printf_stubs.o ABSOLUTE
    _printf_widthprec                        0x00000000   Number         0  printf_stubs.o ABSOLUTE
    __ARM_exceptions_init                     - Undefined Weak Reference
    __alloca_initialize                       - Undefined Weak Reference
    __arm_preinit_                            - Undefined Weak Reference
    __cpp_initialize__aeabi_                  - Undefined Weak Reference
    __cxa_finalize                            - Undefined Weak Reference
    __sigvec_lookup                           - Undefined Weak Reference
    _atexit_init                              - Undefined Weak Reference
    _call_atexit_fns                          - Undefined Weak Reference
    _clock_init                               - Undefined Weak Reference
    _fp_trap_init                             - Undefined Weak Reference
    _fp_trap_shutdown                         - Undefined Weak Reference
    _get_lc_collate                           - Undefined Weak Reference
    _get_lc_monetary                          - Undefined Weak Reference
    _get_lc_time                              - Undefined Weak Reference
    _getenv_init                              - Undefined Weak Reference
    _handle_redirection                       - Undefined Weak Reference
    _init_alloc                               - Undefined Weak Reference
    _init_user_alloc                          - Undefined Weak Reference
    _initio                                   - Undefined Weak Reference
    _printf_mbtowc                            - Undefined Weak Reference
    _printf_wc                                - Undefined Weak Reference
    _rand_init                                - Undefined Weak Reference
    _signal_finish                            - Undefined Weak Reference
    _signal_init                              - Undefined Weak Reference
    _terminate_alloc                          - Undefined Weak Reference
    _terminate_user_alloc                     - Undefined Weak Reference
    _terminateio                              - Undefined Weak Reference
    __Vectors_Size                           0x000000b4   Number         0  startup_mm32spin2xx_p.o ABSOLUTE
    __Vectors                                0x08000000   Data           4  startup_mm32spin2xx_p.o(RESET)
    __Vectors_End                            0x080000b4   Data           0  startup_mm32spin2xx_p.o(RESET)
    __main                                   0x080000b5   Thumb Code     8  __main.o(!!!main)
    __scatterload                            0x080000bd   Thumb Code     0  __scatter.o(!!!scatter)
    __scatterload_rt2                        0x080000bd   Thumb Code    52  __scatter.o(!!!scatter)
    __scatterload_rt2_thumb_only             0x080000bd   Thumb Code     0  __scatter.o(!!!scatter)
    __scatterload_null                       0x080000cd   Thumb Code     0  __scatter.o(!!!scatter)
    __scatterload_zeroinit                   0x080000f9   Thumb Code    28  __scatter_zi.o(!!handler_zi)
    __rt_lib_init                            0x08000115   Thumb Code     0  libinit.o(.ARM.Collect$$libinit$$00000000)
    __rt_lib_init_alloca_1                   0x08000117   Thumb Code     0  libinit2.o(.ARM.Collect$$libinit$$0000002E)
    __rt_lib_init_argv_1                     0x08000117   Thumb Code     0  libinit2.o(.ARM.Collect$$libinit$$0000002C)
    __rt_lib_init_atexit_1                   0x08000117   Thumb Code     0  libinit2.o(.ARM.Collect$$libinit$$0000001B)
    __rt_lib_init_clock_1                    0x08000117   Thumb Code     0  libinit2.o(.ARM.Collect$$libinit$$00000021)
    __rt_lib_init_cpp_1                      0x08000117   Thumb Code     0  libinit2.o(.ARM.Collect$$libinit$$00000032)
    __rt_lib_init_exceptions_1               0x08000117   Thumb Code     0  libinit2.o(.ARM.Collect$$libinit$$00000030)
    __rt_lib_init_fp_1                       0x08000117   Thumb Code     0  libinit2.o(.ARM.Collect$$libinit$$00000002)
    __rt_lib_init_fp_trap_1                  0x08000117   Thumb Code     0  libinit2.o(.ARM.Collect$$libinit$$0000001F)
    __rt_lib_init_getenv_1                   0x08000117   Thumb Code     0  libinit2.o(.ARM.Collect$$libinit$$00000023)
    __rt_lib_init_heap_1                     0x08000117   Thumb Code     0  libinit2.o(.ARM.Collect$$libinit$$0000000A)
    __rt_lib_init_lc_collate_1               0x08000117   Thumb Code     0  libinit2.o(.ARM.Collect$$libinit$$00000011)
    __rt_lib_init_lc_ctype_1                 0x08000117   Thumb Code     0  libinit2.o(.ARM.Collect$$libinit$$00000013)
    __rt_lib_init_lc_monetary_1              0x08000117   Thumb Code     0  libinit2.o(.ARM.Collect$$libinit$$00000015)
    __rt_lib_init_lc_numeric_1               0x08000117   Thumb Code     0  libinit2.o(.ARM.Collect$$libinit$$00000017)
    __rt_lib_init_lc_time_1                  0x08000117   Thumb Code     0  libinit2.o(.ARM.Collect$$libinit$$00000019)
    __rt_lib_init_preinit_1                  0x08000117   Thumb Code     0  libinit2.o(.ARM.Collect$$libinit$$00000004)
    __rt_lib_init_rand_1                     0x08000117   Thumb Code     0  libinit2.o(.ARM.Collect$$libinit$$0000000E)
    __rt_lib_init_return                     0x08000117   Thumb Code     0  libinit2.o(.ARM.Collect$$libinit$$00000033)
    __rt_lib_init_signal_1                   0x08000117   Thumb Code     0  libinit2.o(.ARM.Collect$$libinit$$0000001D)
    __rt_lib_init_stdio_1                    0x08000117   Thumb Code     0  libinit2.o(.ARM.Collect$$libinit$$00000025)
    __rt_lib_init_user_alloc_1               0x08000117   Thumb Code     0  libinit2.o(.ARM.Collect$$libinit$$0000000C)
    __rt_lib_shutdown                        0x08000119   Thumb Code     0  libshutdown.o(.ARM.Collect$$libshutdown$$00000000)
    __rt_lib_shutdown_cpp_1                  0x0800011b   Thumb Code     0  libshutdown2.o(.ARM.Collect$$libshutdown$$00000002)
    __rt_lib_shutdown_fp_trap_1              0x0800011b   Thumb Code     0  libshutdown2.o(.ARM.Collect$$libshutdown$$00000007)
    __rt_lib_shutdown_heap_1                 0x0800011b   Thumb Code     0  libshutdown2.o(.ARM.Collect$$libshutdown$$0000000F)
    __rt_lib_shutdown_return                 0x0800011b   Thumb Code     0  libshutdown2.o(.ARM.Collect$$libshutdown$$00000010)
    __rt_lib_shutdown_signal_1               0x0800011b   Thumb Code     0  libshutdown2.o(.ARM.Collect$$libshutdown$$0000000A)
    __rt_lib_shutdown_stdio_1                0x0800011b   Thumb Code     0  libshutdown2.o(.ARM.Collect$$libshutdown$$00000004)
    __rt_lib_shutdown_user_alloc_1           0x0800011b   Thumb Code     0  libshutdown2.o(.ARM.Collect$$libshutdown$$0000000C)
    __rt_entry                               0x0800011d   Thumb Code     0  __rtentry.o(.ARM.Collect$$rtentry$$00000000)
    __rt_entry_presh_1                       0x0800011d   Thumb Code     0  __rtentry2.o(.ARM.Collect$$rtentry$$00000002)
    __rt_entry_sh                            0x0800011d   Thumb Code     0  __rtentry4.o(.ARM.Collect$$rtentry$$00000004)
    __rt_entry_li                            0x08000123   Thumb Code     0  __rtentry2.o(.ARM.Collect$$rtentry$$0000000A)
    __rt_entry_postsh_1                      0x08000123   Thumb Code     0  __rtentry2.o(.ARM.Collect$$rtentry$$00000009)
    __rt_entry_main                          0x08000127   Thumb Code     0  __rtentry2.o(.ARM.Collect$$rtentry$$0000000D)
    __rt_entry_postli_1                      0x08000127   Thumb Code     0  __rtentry2.o(.ARM.Collect$$rtentry$$0000000C)
    __rt_exit                                0x0800012f   Thumb Code     0  rtexit.o(.ARM.Collect$$rtexit$$00000000)
    __rt_exit_ls                             0x08000131   Thumb Code     0  rtexit2.o(.ARM.Collect$$rtexit$$00000003)
    __rt_exit_prels_1                        0x08000131   Thumb Code     0  rtexit2.o(.ARM.Collect$$rtexit$$00000002)
    __rt_exit_exit                           0x08000135   Thumb Code     0  rtexit2.o(.ARM.Collect$$rtexit$$00000004)
    Reset_Handler                            0x0800013d   Thumb Code    50  startup_mm32spin2xx_p.o(.text)
    NMI_Handler                              0x0800016f   Thumb Code     2  startup_mm32spin2xx_p.o(.text)
    HardFault_Handler                        0x08000171   Thumb Code     2  startup_mm32spin2xx_p.o(.text)
    MemManage_Handler                        0x08000173   Thumb Code     2  startup_mm32spin2xx_p.o(.text)
    BusFault_Handler                         0x08000175   Thumb Code     2  startup_mm32spin2xx_p.o(.text)
    UsageFault_Handler                       0x08000177   Thumb Code     2  startup_mm32spin2xx_p.o(.text)
    SVC_Handler                              0x08000179   Thumb Code     2  startup_mm32spin2xx_p.o(.text)
    DebugMon_Handler                         0x0800017b   Thumb Code     2  startup_mm32spin2xx_p.o(.text)
    PendSV_Handler                           0x0800017d   Thumb Code     2  startup_mm32spin2xx_p.o(.text)
    ADC1_IRQHandler                          0x08000181   Thumb Code     0  startup_mm32spin2xx_p.o(.text)
    ADC2_IRQHandler                          0x08000181   Thumb Code     0  startup_mm32spin2xx_p.o(.text)
    COMP1_2_3_4_5_IRQHandler                 0x08000181   Thumb Code     0  startup_mm32spin2xx_p.o(.text)
    DMA1_Channel1_IRQHandler                 0x08000181   Thumb Code     0  startup_mm32spin2xx_p.o(.text)
    DMA1_Channel2_3_IRQHandler               0x08000181   Thumb Code     0  startup_mm32spin2xx_p.o(.text)
    DMA1_Channel4_5_IRQHandler               0x08000181   Thumb Code     0  startup_mm32spin2xx_p.o(.text)
    EXTI0_1_IRQHandler                       0x08000181   Thumb Code     0  startup_mm32spin2xx_p.o(.text)
    EXTI2_3_IRQHandler                       0x08000181   Thumb Code     0  startup_mm32spin2xx_p.o(.text)
    EXTI4_15_IRQHandler                      0x08000181   Thumb Code     0  startup_mm32spin2xx_p.o(.text)
    FLASH_IRQHandler                         0x08000181   Thumb Code     0  startup_mm32spin2xx_p.o(.text)
    HWDIV_IRQHandler                         0x08000181   Thumb Code     0  startup_mm32spin2xx_p.o(.text)
    I2C1_IRQHandler                          0x08000181   Thumb Code     0  startup_mm32spin2xx_p.o(.text)
    PVD_IRQHandler                           0x08000181   Thumb Code     0  startup_mm32spin2xx_p.o(.text)
    PWM_IRQHandler                           0x08000181   Thumb Code     0  startup_mm32spin2xx_p.o(.text)
    RCC_IRQHandler                           0x08000181   Thumb Code     0  startup_mm32spin2xx_p.o(.text)
    SPI1_IRQHandler                          0x08000181   Thumb Code     0  startup_mm32spin2xx_p.o(.text)
    SPI2_IRQHandler                          0x08000181   Thumb Code     0  startup_mm32spin2xx_p.o(.text)
    TIM1_CC_IRQHandler                       0x08000181   Thumb Code     0  startup_mm32spin2xx_p.o(.text)
    TIM2_IRQHandler                          0x08000181   Thumb Code     0  startup_mm32spin2xx_p.o(.text)
    TIM3_IRQHandler                          0x08000181   Thumb Code     0  startup_mm32spin2xx_p.o(.text)
    TIM8_BRK_UP_TRG_COM_IRQHandler           0x08000181   Thumb Code     0  startup_mm32spin2xx_p.o(.text)
    TIM8_CC_IRQHandler                       0x08000181   Thumb Code     0  startup_mm32spin2xx_p.o(.text)
    UART2_IRQHandler                         0x08000181   Thumb Code     0  startup_mm32spin2xx_p.o(.text)
    WWDG_IRQHandler                          0x08000181   Thumb Code     0  startup_mm32spin2xx_p.o(.text)
    __user_initial_stackheap                 0x08000185   Thumb Code     0  startup_mm32spin2xx_p.o(.text)
    __aeabi_uldivmod                         0x080001cd   Thumb Code   258  lludiv.o(.text)
    _ll_udiv                                 0x080001cd   Thumb Code     0  lludiv.o(.text)
    strlen                                   0x080002d1   Thumb Code    62  strlen.o(.text)
    strncmp                                  0x08000315   Thumb Code   154  strncmp.o(.text)
    _memset_w                                0x080003b5   Thumb Code    26  rt_memclr.o(.text)
    _memset                                  0x080003cf   Thumb Code    30  rt_memclr.o(.text)
    __aeabi_memclr                           0x080003ed   Thumb Code     4  rt_memclr.o(.text)
    __rt_memclr                              0x080003ed   Thumb Code     0  rt_memclr.o(.text)
    __aeabi_memclr4                          0x080003f1   Thumb Code     0  rt_memclr.o(.text)
    __aeabi_memclr8                          0x080003f1   Thumb Code     0  rt_memclr.o(.text)
    __rt_memclr_w                            0x080003f1   Thumb Code     4  rt_memclr.o(.text)
    strcmp                                   0x080003f5   Thumb Code   132  strcmp.o(.text)
    __aeabi_uidiv                            0x0800047d   Thumb Code     0  aeabi_sdiv.o(.text)
    __aeabi_uidivmod                         0x0800047d   Thumb Code    20  aeabi_sdiv.o(.text)
    __aeabi_idiv                             0x08000491   Thumb Code     0  aeabi_sdiv.o(.text)
    __aeabi_idivmod                          0x08000491   Thumb Code   326  aeabi_sdiv.o(.text)
    __use_two_region_memory                  0x080005d7   Thumb Code     2  heapauxi.o(.text)
    __rt_heap_escrow$2region                 0x080005d9   Thumb Code     2  heapauxi.o(.text)
    __rt_heap_expand$2region                 0x080005db   Thumb Code     2  heapauxi.o(.text)
    __aeabi_d2f                              0x080005dd   Thumb Code     0  d2f.o(.text)
    _d2f                                     0x080005dd   Thumb Code   120  d2f.o(.text)
    __aeabi_dadd                             0x08000951   Thumb Code     0  daddsub.o(.text)
    _dadd                                    0x08000951   Thumb Code    26  daddsub.o(.text)
    __aeabi_dsub                             0x0800096b   Thumb Code     0  daddsub.o(.text)
    _dsub                                    0x0800096b   Thumb Code    22  daddsub.o(.text)
    __aeabi_drsub                            0x08000981   Thumb Code     0  daddsub.o(.text)
    _drsb                                    0x08000981   Thumb Code    28  daddsub.o(.text)
    __aeabi_ddiv                             0x080009b1   Thumb Code     0  ddiv.o(.text)
    _ddiv                                    0x080009b1   Thumb Code  1072  ddiv.o(.text)
    _drdiv                                   0x08000de1   Thumb Code    20  ddiv.o(.text)
    __aeabi_d2iz                             0x08000df9   Thumb Code     0  dfixi.o(.text)
    _dfix                                    0x08000df9   Thumb Code    98  dfixi.o(.text)
    __aeabi_i2d_normalise                    0x08000e65   Thumb Code    66  dflti.o(.text)
    __aeabi_i2d                              0x08000ea7   Thumb Code    16  dflti.o(.text)
    _dflt                                    0x08000ea7   Thumb Code     0  dflti.o(.text)
    __aeabi_ui2d                             0x08000eb7   Thumb Code     6  dflti.o(.text)
    _dfltu                                   0x08000eb7   Thumb Code     0  dflti.o(.text)
    __aeabi_dmul                             0x08000ebd   Thumb Code     0  dmul.o(.text)
    _dmul                                    0x08000ebd   Thumb Code   558  dmul.o(.text)
    __aeabi_f2d                              0x08001105   Thumb Code     0  f2d.o(.text)
    _f2d                                     0x08001105   Thumb Code    80  f2d.o(.text)
    __aeabi_fdiv                             0x08001159   Thumb Code     0  fdiv.o(.text)
    _fdiv                                    0x08001159   Thumb Code   334  fdiv.o(.text)
    _frdiv                                   0x080012a7   Thumb Code     8  fdiv.o(.text)
    __aeabi_f2iz                             0x080012b9   Thumb Code     0  ffixi.o(.text)
    _ffix                                    0x080012b9   Thumb Code    76  ffixi.o(.text)
    __aeabi_i2f_normalise                    0x08001305   Thumb Code    72  fflti.o(.text)
    __aeabi_i2f                              0x0800134d   Thumb Code    16  fflti.o(.text)
    _fflt                                    0x0800134d   Thumb Code     0  fflti.o(.text)
    __aeabi_ui2f                             0x0800135d   Thumb Code     6  fflti.o(.text)
    _ffltu                                   0x0800135d   Thumb Code     0  fflti.o(.text)
    __read_errno                             0x08001363   Thumb Code    10  _rserrno.o(.text)
    __set_errno                              0x0800136d   Thumb Code    12  _rserrno.o(.text)
    __fpl_dcmp_InfNaN                        0x08001379   Thumb Code   140  dcmpin.o(.text)
    __ARM_scalbn                             0x08001409   Thumb Code    84  dscalbn.o(.text)
    _dsqrt                                   0x08001469   Thumb Code   248  dsqrt.o(.text)
    __fpl_fcmp_InfNaN                        0x08001569   Thumb Code    96  fcmpin.o(.text)
    __aeabi_errno_addr                       0x080015cd   Thumb Code     8  rt_errno_addr_intlibspace.o(.text)
    __errno$intlibspace                      0x080015cd   Thumb Code     0  rt_errno_addr_intlibspace.o(.text)
    __rt_errno_addr$intlibspace              0x080015cd   Thumb Code     0  rt_errno_addr_intlibspace.o(.text)
    __fpl_cmpreturn                          0x080015d5   Thumb Code    46  cmpret.o(.text)
    __fpl_dcheck_NaN2                        0x08001605   Thumb Code    14  dnan2.o(.text)
    __fpl_fcheck_NaN2                        0x08001619   Thumb Code    10  fnan2.o(.text)
    __user_libspace                          0x08001629   Thumb Code     8  libspace.o(.text)
    __user_perproc_libspace                  0x08001629   Thumb Code     0  libspace.o(.text)
    __user_perthread_libspace                0x08001629   Thumb Code     0  libspace.o(.text)
    __user_setup_stackheap                   0x08001631   Thumb Code    62  sys_stackheap_outer.o(.text)
    exit                                     0x0800166f   Thumb Code    16  exit.o(.text)
    __fpl_return_NaN                         0x0800167f   Thumb Code    94  retnan.o(.text)
    _sys_exit                                0x080016dd   Thumb Code     8  sys_exit.o(.text)
    __I$use$semihosting                      0x080016e9   Thumb Code     0  use_no_semi.o(.text)
    __use_no_semihosting_swi                 0x080016e9   Thumb Code     2  use_no_semi.o(.text)
    __decompress                             0x080016eb   Thumb Code     0  __dczerorl2.o(.text)
    __decompress1                            0x080016eb   Thumb Code    86  __dczerorl2.o(.text)
    __semihosting_library_function           0x080016eb   Thumb Code     0  indicate_semi.o(.text)
    ADC1_CHx_Init                            0x08001741   Thumb Code   188  adc.o(i.ADC1_CHx_Init)
    ADC1_Read                                0x08001805   Thumb Code    40  adc.o(i.ADC1_Read)
    ADC_Cmd                                  0x08001831   Thumb Code    24  hal_adc.o(i.ADC_Cmd)
    ADC_Init                                 0x08001849   Thumb Code    44  hal_adc.o(i.ADC_Init)
    ADC_RegularChannelConfig                 0x08001879   Thumb Code    68  hal_adc.o(i.ADC_RegularChannelConfig)
    ADC_SoftwareStartConvCmd                 0x080018c1   Thumb Code    28  hal_adc.o(i.ADC_SoftwareStartConvCmd)
    ANO_DT_Data_Exchange                     0x080018dd   Thumb Code   508  data_transfer.o(i.ANO_DT_Data_Exchange)
    ANO_DT_Data_Receive_Anl                  0x08001b31   Thumb Code   356  data_transfer.o(i.ANO_DT_Data_Receive_Anl)
    ANO_DT_Data_Receive_Prepare              0x08001cb5   Thumb Code   220  data_transfer.o(i.ANO_DT_Data_Receive_Prepare)
    ANO_DT_Send_Data                         0x08001de5   Thumb Code    42  data_transfer.o(i.ANO_DT_Send_Data)
    ANO_DT_Send_MotoPWM                      0x08001e15   Thumb Code   300  data_transfer.o(i.ANO_DT_Send_MotoPWM)
    ANO_DT_Send_PID                          0x08001f45   Thumb Code   504  data_transfer.o(i.ANO_DT_Send_PID)
    ANO_DT_Send_Senser                       0x08002145   Thumb Code   368  data_transfer.o(i.ANO_DT_Send_Senser)
    ANO_DT_Send_Status                       0x080022b9   Thumb Code   308  data_transfer.o(i.ANO_DT_Send_Status)
    ANO_DT_Send_Version                      0x080023f5   Thumb Code   196  data_transfer.o(i.ANO_DT_Send_Version)
    Abs                                      0x080024bd   Thumb Code    14  speedcontrol.o(i.Abs)
    AutoCalPllFactor                         0x080024cb   Thumb Code   106  system_mm32spin2xx_p.o(i.AutoCalPllFactor)
    BTN1_DOUBLE_Click_Handler                0x08002535   Thumb Code    26  my_multi_button.o(i.BTN1_DOUBLE_Click_Handler)
    BTN1_LONG_PRESS_HOLD_Handler             0x08002559   Thumb Code    66  my_multi_button.o(i.BTN1_LONG_PRESS_HOLD_Handler)
    BTN1_SINGLE_Click_Handler                0x080025a9   Thumb Code    12  my_multi_button.o(i.BTN1_SINGLE_Click_Handler)
    BTN2_DOUBLE_Click_Handler                0x080025bd   Thumb Code    26  my_multi_button.o(i.BTN2_DOUBLE_Click_Handler)
    BTN2_LONG_PRESS_HOLD_Handler             0x080025e1   Thumb Code    66  my_multi_button.o(i.BTN2_LONG_PRESS_HOLD_Handler)
    BTN2_SINGLE_Click_Handler                0x08002631   Thumb Code    14  my_multi_button.o(i.BTN2_SINGLE_Click_Handler)
    Bluetooth_Init                           0x08002649   Thumb Code   148  bluetooth.o(i.Bluetooth_Init)
    GPIO_Init                                0x080026e1   Thumb Code   222  hal_gpio.o(i.GPIO_Init)
    GPIO_KEY_Init                            0x080027c1   Thumb Code    34  gpio.o(i.GPIO_KEY_Init)
    GPIO_LED_Init                            0x080027e9   Thumb Code    66  gpio.o(i.GPIO_LED_Init)
    GPIO_PinAFConfig                         0x08002835   Thumb Code    70  hal_gpio.o(i.GPIO_PinAFConfig)
    GPIO_ReadInputDataBit                    0x0800287b   Thumb Code    20  hal_gpio.o(i.GPIO_ReadInputDataBit)
    GPIO_ResetBits                           0x0800288f   Thumb Code     4  hal_gpio.o(i.GPIO_ResetBits)
    GPIO_SetBits                             0x08002893   Thumb Code     4  hal_gpio.o(i.GPIO_SetBits)
    GPIO_beep_init                           0x08002899   Thumb Code    34  gpio.o(i.GPIO_beep_init)
    Get_Angle                                0x080028c1   Thumb Code   196  angle.o(i.Get_Angle)
    IIC_Ack                                  0x080029b9   Thumb Code    72  softi2c.o(i.IIC_Ack)
    IIC_Init                                 0x08002a05   Thumb Code    32  softi2c.o(i.IIC_Init)
    IIC_NAck                                 0x08002a29   Thumb Code    72  softi2c.o(i.IIC_NAck)
    IIC_ReadByte                             0x08002a75   Thumb Code    98  softi2c.o(i.IIC_ReadByte)
    IIC_ReadMultByteFromSlave                0x08002add   Thumb Code   116  softi2c.o(i.IIC_ReadMultByteFromSlave)
    IIC_SendByte                             0x08002b51   Thumb Code   106  softi2c.o(i.IIC_SendByte)
    IIC_Start                                0x08002bc1   Thumb Code    80  softi2c.o(i.IIC_Start)
    IIC_Stop                                 0x08002c15   Thumb Code    76  softi2c.o(i.IIC_Stop)
    IIC_WaitAck                              0x08002c65   Thumb Code    82  softi2c.o(i.IIC_WaitAck)
    IIC_WriteByteToSlave                     0x08002cbd   Thumb Code    74  softi2c.o(i.IIC_WriteByteToSlave)
    InitSystick                              0x08002d09   Thumb Code    62  sys.o(i.InitSystick)
    LED_trun                                 0x08002d55   Thumb Code   108  gpio.o(i.LED_trun)
    MPU9250_Get_Raw_data                     0x08002dd1   Thumb Code   138  i2c_mpu9250.o(i.MPU9250_Get_Raw_data)
    MPU9250_Init                             0x08002e5b   Thumb Code   152  i2c_mpu9250.o(i.MPU9250_Init)
    MPU9250_Read_Len                         0x08002ef3   Thumb Code    26  i2c_mpu9250.o(i.MPU9250_Read_Len)
    MPU9250_SCL_Out                          0x08002f0d   Thumb Code    34  softi2c.o(i.MPU9250_SCL_Out)
    MPU9250_SDA_In                           0x08002f39   Thumb Code    34  softi2c.o(i.MPU9250_SDA_In)
    MPU9250_SDA_Out                          0x08002f65   Thumb Code    34  softi2c.o(i.MPU9250_SDA_Out)
    MPU9250_Set_Accel_Fsr                    0x08002f91   Thumb Code    18  i2c_mpu9250.o(i.MPU9250_Set_Accel_Fsr)
    MPU9250_Set_Gyro_Fsr                     0x08002fa3   Thumb Code    18  i2c_mpu9250.o(i.MPU9250_Set_Gyro_Fsr)
    MPU9250_Set_LPF                          0x08002fb5   Thumb Code    60  i2c_mpu9250.o(i.MPU9250_Set_LPF)
    MPU9250_Set_Rate                         0x08002ff1   Thumb Code    60  i2c_mpu9250.o(i.MPU9250_Set_Rate)
    MPU9250_Write_Byte                       0x0800302d   Thumb Code    22  i2c_mpu9250.o(i.MPU9250_Write_Byte)
    NVIC_Init                                0x08003045   Thumb Code   106  hal_misc.o(i.NVIC_Init)
    PWM_Init                                 0x0800312d   Thumb Code   388  motor.o(i.PWM_Init)
    PWM_Set_Duty                             0x080032c5   Thumb Code    18  motor.o(i.PWM_Set_Duty)
    RCC_AHBPeriphClockCmd                    0x080032dd   Thumb Code    28  hal_rcc.o(i.RCC_AHBPeriphClockCmd)
    RCC_APB1PeriphClockCmd                   0x080032fd   Thumb Code    28  hal_rcc.o(i.RCC_APB1PeriphClockCmd)
    RCC_APB2PeriphClockCmd                   0x0800331d   Thumb Code    28  hal_rcc.o(i.RCC_APB2PeriphClockCmd)
    RCC_ConfigInit                           0x0800333d   Thumb Code    36  sys.o(i.RCC_ConfigInit)
    RCC_GetClocksFreq                        0x08003361   Thumb Code   226  hal_rcc.o(i.RCC_GetClocksFreq)
    SysTick_CLKSourceConfig                  0x08003595   Thumb Code    32  hal_misc.o(i.SysTick_CLKSourceConfig)
    SysTick_Handler                          0x080035b9   Thumb Code    46  sys.o(i.SysTick_Handler)
    SystemInit                               0x080035f1   Thumb Code    88  system_mm32spin2xx_p.o(i.SystemInit)
    TFTSPI_Addr_Rst                          0x08003655   Thumb Code    70  lcd.o(i.TFTSPI_Addr_Rst)
    TFTSPI_CLS                               0x0800369b   Thumb Code    36  lcd.o(i.TFTSPI_CLS)
    TFTSPI_Init                              0x080036c1   Thumb Code   508  lcd.o(i.TFTSPI_Init)
    TFTSPI_Write_Byte                        0x080038c1   Thumb Code    94  lcd.o(i.TFTSPI_Write_Byte)
    TFTSPI_Write_Cmd                         0x08003925   Thumb Code    94  lcd.o(i.TFTSPI_Write_Cmd)
    TFTSPI_Write_Word                        0x08003989   Thumb Code    96  lcd.o(i.TFTSPI_Write_Word)
    TIM14_IRQHandler                         0x080039ed   Thumb Code    24  timer.o(i.TIM14_IRQHandler)
    TIM16_IRQHandler                         0x08003a09   Thumb Code   728  timer.o(i.TIM16_IRQHandler)
    TIM17_IRQHandler                         0x08003d61   Thumb Code    24  timer.o(i.TIM17_IRQHandler)
    TIM1_BRK_UP_TRG_COM_IRQHandler           0x08003d7d   Thumb Code    24  timer.o(i.TIM1_BRK_UP_TRG_COM_IRQHandler)
    TIMER_InitConfig                         0x08003d99   Thumb Code   298  timer.o(i.TIMER_InitConfig)
    TIM_ARRPreloadConfig                     0x08003ecd   Thumb Code    24  hal_tim.o(i.TIM_ARRPreloadConfig)
    TIM_ClearITPendingBit                    0x08003ee9   Thumb Code     6  hal_tim.o(i.TIM_ClearITPendingBit)
    TIM_Cmd                                  0x08003ef1   Thumb Code    24  hal_tim.o(i.TIM_Cmd)
    TIM_CtrlPWMOutputs                       0x08003f0d   Thumb Code    26  hal_tim.o(i.TIM_CtrlPWMOutputs)
    TIM_GetITStatus                          0x08003f27   Thumb Code    38  hal_tim.o(i.TIM_GetITStatus)
    TIM_ITConfig                             0x08003f4d   Thumb Code    20  hal_tim.o(i.TIM_ITConfig)
    TIM_OC1Init                              0x08003f61   Thumb Code   128  hal_tim.o(i.TIM_OC1Init)
    TIM_OC1PreloadConfig                     0x08003ff9   Thumb Code    22  hal_tim.o(i.TIM_OC1PreloadConfig)
    TIM_OC2Init                              0x08004015   Thumb Code   154  hal_tim.o(i.TIM_OC2Init)
    TIM_OC2PreloadConfig                     0x080040cd   Thumb Code    22  hal_tim.o(i.TIM_OC2PreloadConfig)
    TIM_OC3Init                              0x080040e9   Thumb Code   136  hal_tim.o(i.TIM_OC3Init)
    TIM_OC3PreloadConfig                     0x08004191   Thumb Code    22  hal_tim.o(i.TIM_OC3PreloadConfig)
    TIM_OC4Init                              0x080041ad   Thumb Code   100  hal_tim.o(i.TIM_OC4Init)
    TIM_OC4PreloadConfig                     0x0800422d   Thumb Code    22  hal_tim.o(i.TIM_OC4PreloadConfig)
    TIM_TimeBaseInit                         0x08004249   Thumb Code    96  hal_tim.o(i.TIM_TimeBaseInit)
    UART1_IRQHandler                         0x080042c5   Thumb Code    42  bluetooth.o(i.UART1_IRQHandler)
    UART_ClearITPendingBit                   0x080042f9   Thumb Code     4  hal_uart.o(i.UART_ClearITPendingBit)
    UART_Cmd                                 0x080042fd   Thumb Code    24  hal_uart.o(i.UART_Cmd)
    UART_GetChar                             0x08004319   Thumb Code    14  bluetooth.o(i.UART_GetChar)
    UART_GetFlagStatus                       0x08004327   Thumb Code    20  hal_uart.o(i.UART_GetFlagStatus)
    UART_ITConfig                            0x0800433b   Thumb Code    20  hal_uart.o(i.UART_ITConfig)
    UART_Init                                0x08004351   Thumb Code   118  hal_uart.o(i.UART_Init)
    UART_RX_IRQ_Config                       0x080043cd   Thumb Code    56  bluetooth.o(i.UART_RX_IRQ_Config)
    UART_ReceiveData                         0x0800440d   Thumb Code     8  hal_uart.o(i.UART_ReceiveData)
    UART_SendData                            0x08004415   Thumb Code     6  hal_uart.o(i.UART_SendData)
    Yijielvbo                                0x0800441d   Thumb Code   130  angle.o(i.Yijielvbo)
    __ARM_common_switch8                     0x080044b1   Thumb Code    28  adc.o(i.__ARM_common_switch8)
    __ARM_fpclassify                         0x080044cd   Thumb Code    40  fpclassify.o(i.__ARM_fpclassify)
    __kernel_poly                            0x080044f9   Thumb Code   172  poly.o(i.__kernel_poly)
    __mathlib_dbl_infnan                     0x080045a5   Thumb Code    10  dunder.o(i.__mathlib_dbl_infnan)
    __mathlib_dbl_infnan2                    0x080045af   Thumb Code     8  dunder.o(i.__mathlib_dbl_infnan2)
    __mathlib_dbl_underflow                  0x080045b9   Thumb Code    14  dunder.o(i.__mathlib_dbl_underflow)
    adc_init                                 0x080045cd   Thumb Code    52  adc.o(i.adc_init)
    angle_hanlder                            0x08004601   Thumb Code    28  angle.o(i.angle_hanlder)
    angle_is_normal                          0x08004621   Thumb Code    58  balance.o(i.angle_is_normal)
    atan                                     0x08004669   Thumb Code   472  atan.o(i.atan)
    atan2                                    0x08004885   Thumb Code   334  atan2.o(i.atan2)
    balance                                  0x080049fd   Thumb Code   156  balance.o(i.balance)
    beep_OFF                                 0x08004abd   Thumb Code    12  gpio.o(i.beep_OFF)
    beep_ON                                  0x08004acd   Thumb Code    12  gpio.o(i.beep_ON)
    beep_briefly_on                          0x08004add   Thumb Code    58  gpio.o(i.beep_briefly_on)
    button_attach                            0x08004b17   Thumb Code    12  multi_button.o(i.button_attach)
    button_handler                           0x08004b23   Thumb Code   588  multi_button.o(i.button_handler)
    button_init                              0x08004d6f   Thumb Code    66  multi_button.o(i.button_init)
    button_start                             0x08004db1   Thumb Code    38  multi_button.o(i.button_start)
    button_ticks                             0x08004ddd   Thumb Code    22  multi_button.o(i.button_ticks)
    buzzerDriverInit                         0x08004df9   Thumb Code    92  buzzerdriver.o(i.buzzerDriverInit)
    buzzerSetNewFrequency                    0x08004e61   Thumb Code    56  buzzerdriver.o(i.buzzerSetNewFrequency)
    cacl_error_1                             0x08004ea5   Thumb Code   264  speedcontrol.o(i.cacl_error_1)
    delayms                                  0x08004fd1   Thumb Code    70  sys.o(i.delayms)
    delayms_mpu9250                          0x08005021   Thumb Code    20  i2c_mpu9250.o(i.delayms_mpu9250)
    encoder_init                             0x08005035   Thumb Code   432  encoder.o(i.encoder_init)
    error_processing                         0x080051f1   Thumb Code    30  trace.o(i.error_processing)
    float_Abs                                0x08005225   Thumb Code    28  speedcontrol.o(i.float_Abs)
    iic_delay                                0x08005241   Thumb Code    18  softi2c.o(i.iic_delay)
    judgeOandY                               0x08005255   Thumb Code   106  control_task.o(i.judgeOandY)
    main                                     0x08005309   Thumb Code    84  main.o(i.main)
    motor_run                                0x0800535d   Thumb Code   114  motor.o(i.motor_run)
    music2Play                               0x080053dd   Thumb Code    70  buzzerdriver.o(i.music2Play)
    music4Play                               0x08005435   Thumb Code   174  buzzerdriver.o(i.music4Play)
    musicPlay                                0x0800550d   Thumb Code   164  buzzerdriver.o(i.musicPlay)
    my_button_init                           0x080055d5   Thumb Code    96  my_multi_button.o(i.my_button_init)
    mysys_init                               0x0800565d   Thumb Code    46  sys.o(i.mysys_init)
    nvic_init                                0x0800569d   Thumb Code    24  sys.o(i.nvic_init)
    read_button1_GPIO                        0x080056b5   Thumb Code    12  my_multi_button.o(i.read_button1_GPIO)
    read_button2_GPIO                        0x080056c5   Thumb Code    12  my_multi_button.o(i.read_button2_GPIO)
    set_pwm                                  0x080056d5   Thumb Code   156  balance.o(i.set_pwm)
    shellBackspace                           0x08005781   Thumb Code    14  shell.o(i.shellBackspace)
    shellCheckPermission                     0x080057d5   Thumb Code    62  shell.o(i.shellCheckPermission)
    shellClear                               0x08005815   Thumb Code    24  shell.o(i.shellClear)
    shellClearCommandLine                    0x08005831   Thumb Code    40  shell.o(i.shellClearCommandLine)
    shellCmds                                0x08005859   Thumb Code    20  shell.o(i.shellCmds)
    shellDelete                              0x0800586d   Thumb Code    16  shell.o(i.shellDelete)
    shellDeleteByte                          0x0800587d   Thumb Code   222  shell.o(i.shellDeleteByte)
    shellDeleteCommandLine                   0x0800595d   Thumb Code    28  shell.o(i.shellDeleteCommandLine)
    shellDown                                0x0800597d   Thumb Code    16  shell.o(i.shellDown)
    shellEnter                               0x0800598d   Thumb Code    20  shell.o(i.shellEnter)
    shellExec                                0x080059a1   Thumb Code   116  shell.o(i.shellExec)
    shellExtParsePara                        0x08005ba3   Thumb Code    92  shell_ext.o(i.shellExtParsePara)
    shellExtRun                              0x08005c6f   Thumb Code   206  shell_ext.o(i.shellExtRun)
    shellGetCurrent                          0x08005df5   Thumb Code    48  shell.o(i.shellGetCurrent)
    shellGetVarValue                         0x08005e29   Thumb Code    86  shell.o(i.shellGetVarValue)
    shellHelp                                0x08005e81   Thumb Code   128  shell.o(i.shellHelp)
    shellKeys                                0x08006049   Thumb Code    20  shell.o(i.shellKeys)
    shellLeft                                0x0800605d   Thumb Code    26  shell.o(i.shellLeft)
    shellListAll                             0x08006077   Thumb Code    12  shell.o(i.shellListAll)
    shellListCommand                         0x08006085   Thumb Code    72  shell.o(i.shellListCommand)
    shellListItem                            0x080060d1   Thumb Code   236  shell.o(i.shellListItem)
    shellListKey                             0x080061c9   Thumb Code    86  shell.o(i.shellListKey)
    shellListUser                            0x08006225   Thumb Code    86  shell.o(i.shellListUser)
    shellListVar                             0x08006281   Thumb Code    86  shell.o(i.shellListVar)
    shellRight                               0x080063db   Thumb Code    30  shell.o(i.shellRight)
    shellRunCommand                          0x080063f9   Thumb Code   180  shell.o(i.shellRunCommand)
    shellSeekCommand                         0x080064ad   Thumb Code   130  shell.o(i.shellSeekCommand)
    shellSetVar                              0x08006599   Thumb Code   104  shell.o(i.shellSetVar)
    shellSetVarValue                         0x08006605   Thumb Code   146  shell.o(i.shellSetVarValue)
    shellTab                                 0x080067a9   Thumb Code   288  shell.o(i.shellTab)
    shellToDec                               0x080068cd   Thumb Code    90  shell.o(i.shellToDec)
    shellToHex                               0x08006927   Thumb Code    56  shell.o(i.shellToHex)
    shellUp                                  0x0800695f   Thumb Code    14  shell.o(i.shellUp)
    shellUsers                               0x0800696d   Thumb Code    20  shell.o(i.shellUsers)
    shellVars                                0x08006981   Thumb Code    20  shell.o(i.shellVars)
    shellWriteString                         0x08006af1   Thumb Code    40  shell.o(i.shellWriteString)
    sqrt                                     0x08006b19   Thumb Code    66  sqrt.o(i.sqrt)
    tft18delay_1us                           0x08006b61   Thumb Code    14  lcd.o(i.tft18delay_1us)
    turn                                     0x08006b71   Thumb Code    92  balance.o(i.turn)
    velocity                                 0x08006be1   Thumb Code   244  balance.o(i.velocity)
    __aeabi_cdcmple                          0x08006d0d   Thumb Code     0  dlef.o(x$fpl$dleqf)
    _dcmple                                  0x08006d0d   Thumb Code    94  dlef.o(x$fpl$dleqf)
    __aeabi_cdrcmple                         0x08006d71   Thumb Code     0  drlef.o(x$fpl$drleqf)
    _drcmple                                 0x08006d71   Thumb Code   100  drlef.o(x$fpl$drleqf)
    __aeabi_fadd                             0x08006dd9   Thumb Code     0  faddsub.o(x$fpl$fadd)
    _fadd                                    0x08006dd9   Thumb Code   134  faddsub.o(x$fpl$fadd)
    __aeabi_cfcmple                          0x08006e65   Thumb Code     0  flef.o(x$fpl$fleqf)
    _fcmple                                  0x08006e65   Thumb Code    78  flef.o(x$fpl$fleqf)
    __aeabi_fmul                             0x08006eb9   Thumb Code     0  fmul.o(x$fpl$fmul)
    _fmul                                    0x08006eb9   Thumb Code   172  fmul.o(x$fpl$fmul)
    __aeabi_cfrcmple                         0x08006f69   Thumb Code     0  frlef.o(x$fpl$frleqf)
    _frcmple                                 0x08006f69   Thumb Code    84  frlef.o(x$fpl$frleqf)
    __aeabi_fsub                             0x08006fc1   Thumb Code     0  faddsub.o(x$fpl$fsub)
    _fsub                                    0x08006fc1   Thumb Code   204  faddsub.o(x$fpl$fsub)
    TIMERx                                   0x08007090   Data          28  timer.o(.constdata)
    __I$use$fp                               0x08007090   Number         0  usenofp.o(x$fpl$usenofp)
    shellCmda                                0x080070ac   Data           2  angle.o(.constdata)
    shellDesca                               0x080070ae   Data          12  angle.o(.constdata)
    NJUSTMelody                              0x080070bc   Data        1036  buzzerdriver.o(.constdata)
    NJUSTDuration                            0x080074c8   Data        1048  buzzerdriver.o(.constdata)
    twicle1Melody                            0x080078e0   Data         384  buzzerdriver.o(.constdata)
    twicle1Duration                          0x08007a60   Data         384  buzzerdriver.o(.constdata)
    twicle2Melody                            0x08007be0   Data         768  buzzerdriver.o(.constdata)
    twicle2Duration                          0x08007ee0   Data         768  buzzerdriver.o(.constdata)
    tickMelody                               0x080081e0   Data          24  buzzerdriver.o(.constdata)
    tickDuration                             0x080081f8   Data          24  buzzerdriver.o(.constdata)
    marioMelody                              0x08008210   Data         312  buzzerdriver.o(.constdata)
    secondMelody                             0x08008348   Data           4  buzzerdriver.o(.constdata)
    marioDuration                            0x0800834c   Data         312  buzzerdriver.o(.constdata)
    secondDuration                           0x08008484   Data           4  buzzerdriver.o(.constdata)
    melodySlowfactor                         0x08008488   Data           4  buzzerdriver.o(.constdata)
    melodySizes                              0x0800848c   Data           8  buzzerdriver.o(.constdata)
    melodySizes2                             0x08008494   Data           8  buzzerdriver.o(.constdata)
    melodySizes3                             0x0800849c   Data           8  buzzerdriver.o(.constdata)
    melodySizes3_2                           0x080084a4   Data           8  buzzerdriver.o(.constdata)
    melodySizes4                             0x080084ac   Data           8  buzzerdriver.o(.constdata)
    shellCmdm2                               0x080084b4   Data           3  buzzerdriver.o(.constdata)
    shellDescm2                              0x080084b7   Data          13  buzzerdriver.o(.constdata)
    shellCmdDefaultUser                      0x080084c4   Data           7  shell.o(.constdata)
    shellPasswordDefaultUser                 0x080084cb   Data           1  shell.o(.constdata)
    shellDesDefaultUser                      0x080084cc   Data          13  shell.o(.constdata)
    shellCmdsetVar                           0x080084d9   Data           7  shell.o(.constdata)
    shellDescsetVar                          0x080084e0   Data           8  shell.o(.constdata)
    shellDesc0x1B5B4100                      0x080084e8   Data           3  shell.o(.constdata)
    shellDesc0x1B5B4200                      0x080084eb   Data           5  shell.o(.constdata)
    shellDesc0x1B5B4300                      0x080084f0   Data           6  shell.o(.constdata)
    shellDesc0x1B5B4400                      0x080084f6   Data           5  shell.o(.constdata)
    shellDesc0x09000000                      0x080084fb   Data           4  shell.o(.constdata)
    shellDesc0x08000000                      0x080084ff   Data          10  shell.o(.constdata)
    shellDesc0x7F000000                      0x08008509   Data          10  shell.o(.constdata)
    shellDesc0x1B5B337E                      0x08008513   Data           7  shell.o(.constdata)
    shellDesc0x0A000000                      0x0800851a   Data           6  shell.o(.constdata)
    shellDesc0x0D000000                      0x08008520   Data           6  shell.o(.constdata)
    shellCmdhelp                             0x08008526   Data           5  shell.o(.constdata)
    shellDeschelp                            0x0800852b   Data          30  shell.o(.constdata)
    shellCmdusers                            0x08008549   Data           6  shell.o(.constdata)
    shellDescusers                           0x0800854f   Data          14  shell.o(.constdata)
    shellCmdcmds                             0x0800855d   Data           5  shell.o(.constdata)
    shellDesccmds                            0x08008562   Data          13  shell.o(.constdata)
    shellCmdvars                             0x0800856f   Data           5  shell.o(.constdata)
    shellDescvars                            0x08008574   Data          13  shell.o(.constdata)
    shellCmdkeys                             0x08008581   Data           5  shell.o(.constdata)
    shellDesckeys                            0x08008586   Data          13  shell.o(.constdata)
    shellCmdclear                            0x08008593   Data           6  shell.o(.constdata)
    shellDescclear                           0x08008599   Data          14  shell.o(.constdata)
    __mathlib_zero                           0x08008700   Data           8  qnan.o(.constdata)
    Region$$Table$$Base                      0x080089b0   Number         0  anon$$obj.o(Region$$Table)
    Region$$Table$$Limit                     0x080089d0   Number         0  anon$$obj.o(Region$$Table)
    shellCommand$$Base                       0x080089d0   Number         0  angle.o(shellCommand)
    shellVara                                0x080089d0   Data          16  angle.o(shellCommand)
    shellCommandm2                           0x080089e0   Data          16  buzzerdriver.o(shellCommand)
    shellUserDefault                         0x080089f0   Data          16  shell.o(shellCommand)
    shellCommandsetVar                       0x08008a00   Data          16  shell.o(shellCommand)
    shellKey0x1B5B4100                       0x08008a10   Data          16  shell.o(shellCommand)
    shellKey0x1B5B4200                       0x08008a20   Data          16  shell.o(shellCommand)
    shellKey0x1B5B4300                       0x08008a30   Data          16  shell.o(shellCommand)
    shellKey0x1B5B4400                       0x08008a40   Data          16  shell.o(shellCommand)
    shellKey0x09000000                       0x08008a50   Data          16  shell.o(shellCommand)
    shellKey0x08000000                       0x08008a60   Data          16  shell.o(shellCommand)
    shellKey0x7F000000                       0x08008a70   Data          16  shell.o(shellCommand)
    shellKey0x1B5B337E                       0x08008a80   Data          16  shell.o(shellCommand)
    shellKey0x0A000000                       0x08008a90   Data          16  shell.o(shellCommand)
    shellKey0x0D000000                       0x08008aa0   Data          16  shell.o(shellCommand)
    shellCommandhelp                         0x08008ab0   Data          16  shell.o(shellCommand)
    shellCommandusers                        0x08008ac0   Data          16  shell.o(shellCommand)
    shellCommandcmds                         0x08008ad0   Data          16  shell.o(shellCommand)
    shellCommandvars                         0x08008ae0   Data          16  shell.o(shellCommand)
    shellCommandkeys                         0x08008af0   Data          16  shell.o(shellCommand)
    shellCommandclear                        0x08008b00   Data          16  shell.o(shellCommand)
    shellCommand$$Limit                      0x08008b10   Number         0  shell.o(shellCommand)
    SystemCoreClock                          0x20000010   Data           4  system_mm32spin2xx_p.o(.data)
    AHBPrescTable                            0x20000014   Data          16  system_mm32spin2xx_p.o(.data)
    rx_cnt                                   0x20000028   Data           1  sys.o(.data)
    tx_flag                                  0x20000029   Data           1  sys.o(.data)
    SysTick_Count                            0x2000002c   Data           4  sys.o(.data)
    gDlycnt                                  0x20000030   Data           4  sys.o(.data)
    if_car_move                              0x20000034   Data           1  timer.o(.data)
    pwm1                                     0x20000038   Data           4  timer.o(.data)
    pwm2                                     0x2000003c   Data           4  timer.o(.data)
    pwm3                                     0x20000040   Data           4  timer.o(.data)
    time0_timer                              0x20000044   Data           2  timer.o(.data)
    time1_timer_flag                         0x20000046   Data           1  timer.o(.data)
    time1_timer                              0x20000048   Data           2  timer.o(.data)
    sancha_timer                             0x2000004a   Data           2  timer.o(.data)
    begin_cooler_timer                       0x2000004c   Data           2  timer.o(.data)
    buzzer_flag                              0x2000004e   Data           1  timer.o(.data)
    if_music1                                0x2000004f   Data           1  timer.o(.data)
    if_music2                                0x20000050   Data           1  timer.o(.data)
    adc_left                                 0x20000068   Data           4  adc.o(.data)
    adc_right                                0x2000006c   Data           4  adc.o(.data)
    adc_left_level                           0x20000070   Data           4  adc.o(.data)
    adc_left_vertical                        0x20000074   Data           4  adc.o(.data)
    adc_right_level                          0x20000078   Data           4  adc.o(.data)
    adc_right_vertical                       0x2000007c   Data           4  adc.o(.data)
    adc_second_left                          0x20000080   Data           4  adc.o(.data)
    adc_second_right                         0x20000084   Data           4  adc.o(.data)
    kp                                       0x20000088   Data           8  speedcontrol.o(.data)
    kd                                       0x20000090   Data           8  speedcontrol.o(.data)
    basic_speed                              0x20000098   Data           4  speedcontrol.o(.data)
    average_speed                            0x2000009c   Data           4  speedcontrol.o(.data)
    left_encoder_puslse                      0x200000a0   Data           4  speedcontrol.o(.data)
    right_encoder_puslse                     0x200000a4   Data           4  speedcontrol.o(.data)
    left_pwm                                 0x200000a8   Data           4  speedcontrol.o(.data)
    right_pwm                                0x200000ac   Data           4  speedcontrol.o(.data)
    left_diretion                            0x200000b0   Data           1  speedcontrol.o(.data)
    right_diretion                           0x200000b1   Data           1  speedcontrol.o(.data)
    now_speed_left                           0x200000b4   Data           4  speedcontrol.o(.data)
    now_speed_right                          0x200000b8   Data           4  speedcontrol.o(.data)
    left_error                               0x200000bc   Data           4  speedcontrol.o(.data)
    right_error                              0x200000c0   Data           4  speedcontrol.o(.data)
    sum_left_speed                           0x200000c4   Data           4  speedcontrol.o(.data)
    sum_right_speed                          0x200000c8   Data           4  speedcontrol.o(.data)
    error                                    0x200000d0   Data           8  speedcontrol.o(.data)
    if_key                                   0x20000138   Data           1  gpio.o(.data)
    Angle_Balance                            0x2000013c   Data           4  angle.o(.data)
    Gyro_Balance                             0x20000140   Data           4  angle.o(.data)
    Gyro_Turn                                0x20000144   Data           4  angle.o(.data)
    Acceleration_Z                           0x20000148   Data           4  angle.o(.data)
    K1                                       0x2000014c   Data           4  angle.o(.data)
    angle                                    0x20000150   Data           4  angle.o(.data)
    debug_angle                              0x20000154   Data           4  angle.o(.data)
    i2cGPIO_InitStructure                    0x20000158   Data           4  softi2c.o(.data)
    melody                                   0x2000015c   Data           8  buzzerdriver.o(.data)
    noteDurations                            0x20000164   Data           8  buzzerdriver.o(.data)
    melody2                                  0x2000016c   Data           8  buzzerdriver.o(.data)
    noteDurations2                           0x20000174   Data           8  buzzerdriver.o(.data)
    melody3twincle                           0x2000017c   Data           8  buzzerdriver.o(.data)
    noteDurations3                           0x20000184   Data           8  buzzerdriver.o(.data)
    melody3twincle2                          0x2000018c   Data           8  buzzerdriver.o(.data)
    noteDurations3_2                         0x20000194   Data           8  buzzerdriver.o(.data)
    melody4                                  0x2000019c   Data           8  buzzerdriver.o(.data)
    noteDurations4                           0x200001a4   Data           8  buzzerdriver.o(.data)
    music_volume                             0x200001ac   Data           1  buzzerdriver.o(.data)
    ZHONGZHI                                 0x200001d0   Data           4  balance.o(.data)
    Balance_Kp                               0x200001d4   Data           4  balance.o(.data)
    Balance_Kd                               0x200001d8   Data           4  balance.o(.data)
    Velocity_Kp                              0x200001dc   Data           4  balance.o(.data)
    Velocity_Ki                              0x200001e0   Data           4  balance.o(.data)
    motor1                                   0x200001e4   Data           4  balance.o(.data)
    motor2                                   0x200001e8   Data           4  balance.o(.data)
    maxueyang_speed                          0x200001ec   Data           4  balance.o(.data)
    Flag_Stop                                0x200001f0   Data           1  balance.o(.data)
    Flag_Qian                                0x200001f1   Data           1  balance.o(.data)
    Turn_Target                              0x200001f4   Data           4  balance.o(.data)
    Encoder_Integral                         0x200001f8   Data           4  balance.o(.data)
    adc_normal                               0x2000021c   Data           4  control_task.o(.data)
    adc_O                                    0x20000220   Data           4  control_task.o(.data)
    adc_Y                                    0x20000224   Data           4  control_task.o(.data)
    recv_buf                                 0x2000027c   Data           1  shell_port.o(.data)
    slow_factor                              0x20000284   Data           1  my_multi_button.o(.data)
    mpu6050                                  0x20000288   Data          14  angle.o(.bss)
    f                                        0x20000296   Data          12  data_transfer.o(.bss)
    data_to_send                             0x200002a2   Data          50  data_transfer.o(.bss)
    button1                                  0x20000328   Data          40  my_multi_button.o(.bss)
    button2                                  0x20000350   Data          40  my_multi_button.o(.bss)
    __libspace_start                         0x20000378   Data          96  libspace.o(.bss)
    __temporary_stack_top$libspace           0x200003d8   Data           0  libspace.o(.bss)



==============================================================================

Memory Map of the image

  Image Entry point : 0x080000b5

  Load Region LR_IROM1 (Base: 0x08000000, Size: 0x00008d98, Max: 0x00020000, ABSOLUTE, COMPRESSED[0x00008bf0])

    Execution Region ER_IROM1 (Exec base: 0x08000000, Load base: 0x08000000, Size: 0x00008b10, Max: 0x00020000, ABSOLUTE)

    Exec Addr    Load Addr    Size         Type   Attr      Idx    E Section Name        Object

    0x08000000   0x08000000   0x000000b4   Data   RO         2476    RESET               startup_mm32spin2xx_p.o
    0x080000b4   0x080000b4   0x00000008   Code   RO         4596  * !!!main             c_p.l(__main.o)
    0x080000bc   0x080000bc   0x0000003c   Code   RO         4996    !!!scatter          c_p.l(__scatter.o)
    0x080000f8   0x080000f8   0x0000001c   Code   RO         4998    !!handler_zi        c_p.l(__scatter_zi.o)
    0x08000114   0x08000114   0x00000002   Code   RO         4861    .ARM.Collect$$libinit$$00000000  c_p.l(libinit.o)
    0x08000116   0x08000116   0x00000000   Code   RO         4863    .ARM.Collect$$libinit$$00000002  c_p.l(libinit2.o)
    0x08000116   0x08000116   0x00000000   Code   RO         4865    .ARM.Collect$$libinit$$00000004  c_p.l(libinit2.o)
    0x08000116   0x08000116   0x00000000   Code   RO         4868    .ARM.Collect$$libinit$$0000000A  c_p.l(libinit2.o)
    0x08000116   0x08000116   0x00000000   Code   RO         4870    .ARM.Collect$$libinit$$0000000C  c_p.l(libinit2.o)
    0x08000116   0x08000116   0x00000000   Code   RO         4872    .ARM.Collect$$libinit$$0000000E  c_p.l(libinit2.o)
    0x08000116   0x08000116   0x00000000   Code   RO         4875    .ARM.Collect$$libinit$$00000011  c_p.l(libinit2.o)
    0x08000116   0x08000116   0x00000000   Code   RO         4877    .ARM.Collect$$libinit$$00000013  c_p.l(libinit2.o)
    0x08000116   0x08000116   0x00000000   Code   RO         4879    .ARM.Collect$$libinit$$00000015  c_p.l(libinit2.o)
    0x08000116   0x08000116   0x00000000   Code   RO         4881    .ARM.Collect$$libinit$$00000017  c_p.l(libinit2.o)
    0x08000116   0x08000116   0x00000000   Code   RO         4883    .ARM.Collect$$libinit$$00000019  c_p.l(libinit2.o)
    0x08000116   0x08000116   0x00000000   Code   RO         4885    .ARM.Collect$$libinit$$0000001B  c_p.l(libinit2.o)
    0x08000116   0x08000116   0x00000000   Code   RO         4887    .ARM.Collect$$libinit$$0000001D  c_p.l(libinit2.o)
    0x08000116   0x08000116   0x00000000   Code   RO         4889    .ARM.Collect$$libinit$$0000001F  c_p.l(libinit2.o)
    0x08000116   0x08000116   0x00000000   Code   RO         4891    .ARM.Collect$$libinit$$00000021  c_p.l(libinit2.o)
    0x08000116   0x08000116   0x00000000   Code   RO         4893    .ARM.Collect$$libinit$$00000023  c_p.l(libinit2.o)
    0x08000116   0x08000116   0x00000000   Code   RO         4895    .ARM.Collect$$libinit$$00000025  c_p.l(libinit2.o)
    0x08000116   0x08000116   0x00000000   Code   RO         4899    .ARM.Collect$$libinit$$0000002C  c_p.l(libinit2.o)
    0x08000116   0x08000116   0x00000000   Code   RO         4901    .ARM.Collect$$libinit$$0000002E  c_p.l(libinit2.o)
    0x08000116   0x08000116   0x00000000   Code   RO         4903    .ARM.Collect$$libinit$$00000030  c_p.l(libinit2.o)
    0x08000116   0x08000116   0x00000000   Code   RO         4905    .ARM.Collect$$libinit$$00000032  c_p.l(libinit2.o)
    0x08000116   0x08000116   0x00000002   Code   RO         4906    .ARM.Collect$$libinit$$00000033  c_p.l(libinit2.o)
    0x08000118   0x08000118   0x00000002   Code   RO         4959    .ARM.Collect$$libshutdown$$00000000  c_p.l(libshutdown.o)
    0x0800011a   0x0800011a   0x00000000   Code   RO         4977    .ARM.Collect$$libshutdown$$00000002  c_p.l(libshutdown2.o)
    0x0800011a   0x0800011a   0x00000000   Code   RO         4979    .ARM.Collect$$libshutdown$$00000004  c_p.l(libshutdown2.o)
    0x0800011a   0x0800011a   0x00000000   Code   RO         4982    .ARM.Collect$$libshutdown$$00000007  c_p.l(libshutdown2.o)
    0x0800011a   0x0800011a   0x00000000   Code   RO         4985    .ARM.Collect$$libshutdown$$0000000A  c_p.l(libshutdown2.o)
    0x0800011a   0x0800011a   0x00000000   Code   RO         4987    .ARM.Collect$$libshutdown$$0000000C  c_p.l(libshutdown2.o)
    0x0800011a   0x0800011a   0x00000000   Code   RO         4990    .ARM.Collect$$libshutdown$$0000000F  c_p.l(libshutdown2.o)
    0x0800011a   0x0800011a   0x00000002   Code   RO         4991    .ARM.Collect$$libshutdown$$00000010  c_p.l(libshutdown2.o)
    0x0800011c   0x0800011c   0x00000000   Code   RO         4666    .ARM.Collect$$rtentry$$00000000  c_p.l(__rtentry.o)
    0x0800011c   0x0800011c   0x00000000   Code   RO         4783    .ARM.Collect$$rtentry$$00000002  c_p.l(__rtentry2.o)
    0x0800011c   0x0800011c   0x00000006   Code   RO         4795    .ARM.Collect$$rtentry$$00000004  c_p.l(__rtentry4.o)
    0x08000122   0x08000122   0x00000000   Code   RO         4785    .ARM.Collect$$rtentry$$00000009  c_p.l(__rtentry2.o)
    0x08000122   0x08000122   0x00000004   Code   RO         4786    .ARM.Collect$$rtentry$$0000000A  c_p.l(__rtentry2.o)
    0x08000126   0x08000126   0x00000000   Code   RO         4788    .ARM.Collect$$rtentry$$0000000C  c_p.l(__rtentry2.o)
    0x08000126   0x08000126   0x00000008   Code   RO         4789    .ARM.Collect$$rtentry$$0000000D  c_p.l(__rtentry2.o)
    0x0800012e   0x0800012e   0x00000002   Code   RO         4910    .ARM.Collect$$rtexit$$00000000  c_p.l(rtexit.o)
    0x08000130   0x08000130   0x00000000   Code   RO         4928    .ARM.Collect$$rtexit$$00000002  c_p.l(rtexit2.o)
    0x08000130   0x08000130   0x00000004   Code   RO         4929    .ARM.Collect$$rtexit$$00000003  c_p.l(rtexit2.o)
    0x08000134   0x08000134   0x00000006   Code   RO         4930    .ARM.Collect$$rtexit$$00000004  c_p.l(rtexit2.o)
    0x0800013a   0x0800013a   0x00000002   PAD
    0x0800013c   0x0800013c   0x00000090   Code   RO         2477    .text               startup_mm32spin2xx_p.o
    0x080001cc   0x080001cc   0x00000102   Code   RO         4545    .text               c_p.l(lludiv.o)
    0x080002ce   0x080002ce   0x00000002   PAD
    0x080002d0   0x080002d0   0x00000044   Code   RO         4582    .text               c_p.l(strlen.o)
    0x08000314   0x08000314   0x000000a0   Code   RO         4584    .text               c_p.l(strncmp.o)
    0x080003b4   0x080003b4   0x00000040   Code   RO         4586    .text               c_p.l(rt_memclr.o)
    0x080003f4   0x080003f4   0x00000088   Code   RO         4588    .text               c_p.l(strcmp.o)
    0x0800047c   0x0800047c   0x0000015a   Code   RO         4590    .text               c_p.l(aeabi_sdiv.o)
    0x080005d6   0x080005d6   0x00000006   Code   RO         4594    .text               c_p.l(heapauxi.o)
    0x080005dc   0x080005dc   0x0000007c   Code   RO         4598    .text               fz_ps.l(d2f.o)
    0x08000658   0x08000658   0x00000358   Code   RO         4600    .text               fz_ps.l(daddsub.o)
    0x080009b0   0x080009b0   0x00000448   Code   RO         4602    .text               fz_ps.l(ddiv.o)
    0x08000df8   0x08000df8   0x0000006c   Code   RO         4605    .text               fz_ps.l(dfixi.o)
    0x08000e64   0x08000e64   0x00000058   Code   RO         4607    .text               fz_ps.l(dflti.o)
    0x08000ebc   0x08000ebc   0x00000248   Code   RO         4611    .text               fz_ps.l(dmul.o)
    0x08001104   0x08001104   0x00000054   Code   RO         4615    .text               fz_ps.l(f2d.o)
    0x08001158   0x08001158   0x00000160   Code   RO         4623    .text               fz_ps.l(fdiv.o)
    0x080012b8   0x080012b8   0x0000004c   Code   RO         4626    .text               fz_ps.l(ffixi.o)
    0x08001304   0x08001304   0x0000005e   Code   RO         4630    .text               fz_ps.l(fflti.o)
    0x08001362   0x08001362   0x00000016   Code   RO         4675    .text               c_p.l(_rserrno.o)
    0x08001378   0x08001378   0x00000090   Code   RO         4748    .text               fz_ps.l(dcmpin.o)
    0x08001408   0x08001408   0x00000060   Code   RO         4750    .text               fz_ps.l(dscalbn.o)
    0x08001468   0x08001468   0x00000100   Code   RO         4752    .text               fz_ps.l(dsqrt.o)
    0x08001568   0x08001568   0x00000064   Code   RO         4754    .text               fz_ps.l(fcmpin.o)
    0x080015cc   0x080015cc   0x00000008   Code   RO         4807    .text               c_p.l(rt_errno_addr_intlibspace.o)
    0x080015d4   0x080015d4   0x0000002e   Code   RO         4834    .text               fz_ps.l(cmpret.o)
    0x08001602   0x08001602   0x00000002   PAD
    0x08001604   0x08001604   0x00000014   Code   RO         4836    .text               fz_ps.l(dnan2.o)
    0x08001618   0x08001618   0x00000010   Code   RO         4838    .text               fz_ps.l(fnan2.o)
    0x08001628   0x08001628   0x00000008   Code   RO         4842    .text               c_p.l(libspace.o)
    0x08001630   0x08001630   0x0000003e   Code   RO         4845    .text               c_p.l(sys_stackheap_outer.o)
    0x0800166e   0x0800166e   0x00000010   Code   RO         4850    .text               c_p.l(exit.o)
    0x0800167e   0x0800167e   0x0000005e   Code   RO         4907    .text               fz_ps.l(retnan.o)
    0x080016dc   0x080016dc   0x0000000c   Code   RO         4925    .text               c_p.l(sys_exit.o)
    0x080016e8   0x080016e8   0x00000002   Code   RO         4946    .text               c_p.l(use_no_semi.o)
    0x080016ea   0x080016ea   0x00000000   Code   RO         4948    .text               c_p.l(indicate_semi.o)
    0x080016ea   0x080016ea   0x00000056   Code   RO         4994    .text               c_p.l(__dczerorl2.o)
    0x08001740   0x08001740   0x000000c4   Code   RO         2985    i.ADC1_CHx_Init     adc.o
    0x08001804   0x08001804   0x0000002c   Code   RO         2986    i.ADC1_Read         adc.o
    0x08001830   0x08001830   0x00000018   Code   RO          201    i.ADC_Cmd           hal_adc.o
    0x08001848   0x08001848   0x00000030   Code   RO          211    i.ADC_Init          hal_adc.o
    0x08001878   0x08001878   0x00000048   Code   RO          212    i.ADC_RegularChannelConfig  hal_adc.o
    0x080018c0   0x080018c0   0x0000001c   Code   RO          214    i.ADC_SoftwareStartConvCmd  hal_adc.o
    0x080018dc   0x080018dc   0x00000254   Code   RO         3696    i.ANO_DT_Data_Exchange  data_transfer.o
    0x08001b30   0x08001b30   0x00000184   Code   RO         3697    i.ANO_DT_Data_Receive_Anl  data_transfer.o
    0x08001cb4   0x08001cb4   0x000000ec   Code   RO         3698    i.ANO_DT_Data_Receive_Prepare  data_transfer.o
    0x08001da0   0x08001da0   0x00000044   Code   RO         3699    i.ANO_DT_Send_Check  data_transfer.o
    0x08001de4   0x08001de4   0x00000030   Code   RO         3700    i.ANO_DT_Send_Data  data_transfer.o
    0x08001e14   0x08001e14   0x00000130   Code   RO         3701    i.ANO_DT_Send_MotoPWM  data_transfer.o
    0x08001f44   0x08001f44   0x00000200   Code   RO         3702    i.ANO_DT_Send_PID   data_transfer.o
    0x08002144   0x08002144   0x00000174   Code   RO         3705    i.ANO_DT_Send_Senser  data_transfer.o
    0x080022b8   0x080022b8   0x0000013c   Code   RO         3706    i.ANO_DT_Send_Status  data_transfer.o
    0x080023f4   0x080023f4   0x000000c8   Code   RO         3707    i.ANO_DT_Send_Version  data_transfer.o
    0x080024bc   0x080024bc   0x0000000e   Code   RO         3083    i.Abs               speedcontrol.o
    0x080024ca   0x080024ca   0x0000006a   Code   RO         2483    i.AutoCalPllFactor  system_mm32spin2xx_p.o
    0x08002534   0x08002534   0x00000024   Code   RO         4462    i.BTN1_DOUBLE_Click_Handler  my_multi_button.o
    0x08002558   0x08002558   0x00000050   Code   RO         4463    i.BTN1_LONG_PRESS_HOLD_Handler  my_multi_button.o
    0x080025a8   0x080025a8   0x00000014   Code   RO         4464    i.BTN1_SINGLE_Click_Handler  my_multi_button.o
    0x080025bc   0x080025bc   0x00000024   Code   RO         4465    i.BTN2_DOUBLE_Click_Handler  my_multi_button.o
    0x080025e0   0x080025e0   0x00000050   Code   RO         4466    i.BTN2_LONG_PRESS_HOLD_Handler  my_multi_button.o
    0x08002630   0x08002630   0x00000018   Code   RO         4467    i.BTN2_SINGLE_Click_Handler  my_multi_button.o
    0x08002648   0x08002648   0x00000098   Code   RO         3162    i.Bluetooth_Init    bluetooth.o
    0x080026e0   0x080026e0   0x000000de   Code   RO          823    i.GPIO_Init         hal_gpio.o
    0x080027be   0x080027be   0x00000002   PAD
    0x080027c0   0x080027c0   0x00000028   Code   RO         3245    i.GPIO_KEY_Init     gpio.o
    0x080027e8   0x080027e8   0x0000004c   Code   RO         3246    i.GPIO_LED_Init     gpio.o
    0x08002834   0x08002834   0x00000046   Code   RO          824    i.GPIO_PinAFConfig  hal_gpio.o
    0x0800287a   0x0800287a   0x00000014   Code   RO          827    i.GPIO_ReadInputDataBit  hal_gpio.o
    0x0800288e   0x0800288e   0x00000004   Code   RO          830    i.GPIO_ResetBits    hal_gpio.o
    0x08002892   0x08002892   0x00000004   Code   RO          831    i.GPIO_SetBits      hal_gpio.o
    0x08002896   0x08002896   0x00000002   PAD
    0x08002898   0x08002898   0x00000028   Code   RO         3247    i.GPIO_beep_init    gpio.o
    0x080028c0   0x080028c0   0x000000f8   Code   RO         3344    i.Get_Angle         angle.o
    0x080029b8   0x080029b8   0x0000004c   Code   RO         3385    i.IIC_Ack           softi2c.o
    0x08002a04   0x08002a04   0x00000024   Code   RO         3386    i.IIC_Init          softi2c.o
    0x08002a28   0x08002a28   0x0000004c   Code   RO         3387    i.IIC_NAck          softi2c.o
    0x08002a74   0x08002a74   0x00000068   Code   RO         3388    i.IIC_ReadByte      softi2c.o
    0x08002adc   0x08002adc   0x00000074   Code   RO         3390    i.IIC_ReadMultByteFromSlave  softi2c.o
    0x08002b50   0x08002b50   0x00000070   Code   RO         3391    i.IIC_SendByte      softi2c.o
    0x08002bc0   0x08002bc0   0x00000054   Code   RO         3392    i.IIC_Start         softi2c.o
    0x08002c14   0x08002c14   0x00000050   Code   RO         3393    i.IIC_Stop          softi2c.o
    0x08002c64   0x08002c64   0x00000058   Code   RO         3394    i.IIC_WaitAck       softi2c.o
    0x08002cbc   0x08002cbc   0x0000004a   Code   RO         3395    i.IIC_WriteByteToSlave  softi2c.o
    0x08002d06   0x08002d06   0x00000002   PAD
    0x08002d08   0x08002d08   0x0000004c   Code   RO         2525    i.InitSystick       sys.o
    0x08002d54   0x08002d54   0x0000007c   Code   RO         3248    i.LED_trun          gpio.o
    0x08002dd0   0x08002dd0   0x0000008a   Code   RO         3575    i.MPU9250_Get_Raw_data  i2c_mpu9250.o
    0x08002e5a   0x08002e5a   0x00000098   Code   RO         3577    i.MPU9250_Init      i2c_mpu9250.o
    0x08002ef2   0x08002ef2   0x0000001a   Code   RO         3579    i.MPU9250_Read_Len  i2c_mpu9250.o
    0x08002f0c   0x08002f0c   0x0000002c   Code   RO         3397    i.MPU9250_SCL_Out   softi2c.o
    0x08002f38   0x08002f38   0x0000002c   Code   RO         3398    i.MPU9250_SDA_In    softi2c.o
    0x08002f64   0x08002f64   0x0000002c   Code   RO         3399    i.MPU9250_SDA_Out   softi2c.o
    0x08002f90   0x08002f90   0x00000012   Code   RO         3580    i.MPU9250_Set_Accel_Fsr  i2c_mpu9250.o
    0x08002fa2   0x08002fa2   0x00000012   Code   RO         3581    i.MPU9250_Set_Gyro_Fsr  i2c_mpu9250.o
    0x08002fb4   0x08002fb4   0x0000003c   Code   RO         3582    i.MPU9250_Set_LPF   i2c_mpu9250.o
    0x08002ff0   0x08002ff0   0x0000003c   Code   RO         3583    i.MPU9250_Set_Rate  i2c_mpu9250.o
    0x0800302c   0x0800302c   0x00000016   Code   RO         3584    i.MPU9250_Write_Byte  i2c_mpu9250.o
    0x08003042   0x08003042   0x00000002   PAD
    0x08003044   0x08003044   0x00000070   Code   RO         1152    i.NVIC_Init         hal_misc.o
    0x080030b4   0x080030b4   0x00000078   Code   RO         2526    i.NVIC_SetPriority  sys.o
    0x0800312c   0x0800312c   0x00000198   Code   RO         2847    i.PWM_Init          motor.o
    0x080032c4   0x080032c4   0x00000018   Code   RO         2848    i.PWM_Set_Duty      motor.o
    0x080032dc   0x080032dc   0x00000020   Code   RO         1293    i.RCC_AHBPeriphClockCmd  hal_rcc.o
    0x080032fc   0x080032fc   0x00000020   Code   RO         1294    i.RCC_APB1PeriphClockCmd  hal_rcc.o
    0x0800331c   0x0800331c   0x00000020   Code   RO         1296    i.RCC_APB2PeriphClockCmd  hal_rcc.o
    0x0800333c   0x0800333c   0x00000024   Code   RO         2527    i.RCC_ConfigInit    sys.o
    0x08003360   0x08003360   0x000000fc   Code   RO         1303    i.RCC_GetClocksFreq  hal_rcc.o
    0x0800345c   0x0800345c   0x00000008   Code   RO         2484    i.SetSysClock       system_mm32spin2xx_p.o
    0x08003464   0x08003464   0x00000130   Code   RO         2485    i.SetSysClockToXX_HSI  system_mm32spin2xx_p.o
    0x08003594   0x08003594   0x00000024   Code   RO         1155    i.SysTick_CLKSourceConfig  hal_misc.o
    0x080035b8   0x080035b8   0x00000038   Code   RO         2528    i.SysTick_Handler   sys.o
    0x080035f0   0x080035f0   0x00000064   Code   RO         2486    i.SystemInit        system_mm32spin2xx_p.o
    0x08003654   0x08003654   0x00000046   Code   RO         2648    i.TFTSPI_Addr_Rst   lcd.o
    0x0800369a   0x0800369a   0x00000024   Code   RO         2650    i.TFTSPI_CLS        lcd.o
    0x080036be   0x080036be   0x00000002   PAD
    0x080036c0   0x080036c0   0x00000200   Code   RO         2657    i.TFTSPI_Init       lcd.o
    0x080038c0   0x080038c0   0x00000064   Code   RO         2672    i.TFTSPI_Write_Byte  lcd.o
    0x08003924   0x08003924   0x00000064   Code   RO         2673    i.TFTSPI_Write_Cmd  lcd.o
    0x08003988   0x08003988   0x00000064   Code   RO         2674    i.TFTSPI_Write_Word  lcd.o
    0x080039ec   0x080039ec   0x0000001c   Code   RO         2895    i.TIM14_IRQHandler  timer.o
    0x08003a08   0x08003a08   0x00000358   Code   RO         2896    i.TIM16_IRQHandler  timer.o
    0x08003d60   0x08003d60   0x0000001c   Code   RO         2897    i.TIM17_IRQHandler  timer.o
    0x08003d7c   0x08003d7c   0x0000001c   Code   RO         2898    i.TIM1_BRK_UP_TRG_COM_IRQHandler  timer.o
    0x08003d98   0x08003d98   0x00000134   Code   RO         2899    i.TIMER_InitConfig  timer.o
    0x08003ecc   0x08003ecc   0x0000001c   Code   RO         1641    i.TIM_ARRPreloadConfig  hal_tim.o
    0x08003ee8   0x08003ee8   0x00000006   Code   RO         1648    i.TIM_ClearITPendingBit  hal_tim.o
    0x08003eee   0x08003eee   0x00000002   PAD
    0x08003ef0   0x08003ef0   0x0000001c   Code   RO         1654    i.TIM_Cmd           hal_tim.o
    0x08003f0c   0x08003f0c   0x0000001a   Code   RO         1656    i.TIM_CtrlPWMOutputs  hal_tim.o
    0x08003f26   0x08003f26   0x00000026   Code   RO         1676    i.TIM_GetITStatus   hal_tim.o
    0x08003f4c   0x08003f4c   0x00000014   Code   RO         1680    i.TIM_ITConfig      hal_tim.o
    0x08003f60   0x08003f60   0x00000098   Code   RO         1685    i.TIM_OC1Init       hal_tim.o
    0x08003ff8   0x08003ff8   0x0000001c   Code   RO         1688    i.TIM_OC1PreloadConfig  hal_tim.o
    0x08004014   0x08004014   0x000000b8   Code   RO         1690    i.TIM_OC2Init       hal_tim.o
    0x080040cc   0x080040cc   0x0000001c   Code   RO         1693    i.TIM_OC2PreloadConfig  hal_tim.o
    0x080040e8   0x080040e8   0x000000a8   Code   RO         1695    i.TIM_OC3Init       hal_tim.o
    0x08004190   0x08004190   0x0000001c   Code   RO         1698    i.TIM_OC3PreloadConfig  hal_tim.o
    0x080041ac   0x080041ac   0x00000080   Code   RO         1700    i.TIM_OC4Init       hal_tim.o
    0x0800422c   0x0800422c   0x0000001c   Code   RO         1702    i.TIM_OC4PreloadConfig  hal_tim.o
    0x08004248   0x08004248   0x0000007c   Code   RO         1732    i.TIM_TimeBaseInit  hal_tim.o
    0x080042c4   0x080042c4   0x00000034   Code   RO         3164    i.UART1_IRQHandler  bluetooth.o
    0x080042f8   0x080042f8   0x00000004   Code   RO         2245    i.UART_ClearITPendingBit  hal_uart.o
    0x080042fc   0x080042fc   0x0000001c   Code   RO         2246    i.UART_Cmd          hal_uart.o
    0x08004318   0x08004318   0x0000000e   Code   RO         3165    i.UART_GetChar      bluetooth.o
    0x08004326   0x08004326   0x00000014   Code   RO         2250    i.UART_GetFlagStatus  hal_uart.o
    0x0800433a   0x0800433a   0x00000014   Code   RO         2253    i.UART_ITConfig     hal_uart.o
    0x0800434e   0x0800434e   0x00000002   PAD
    0x08004350   0x08004350   0x0000007c   Code   RO         2254    i.UART_Init         hal_uart.o
    0x080043cc   0x080043cc   0x00000040   Code   RO         3168    i.UART_RX_IRQ_Config  bluetooth.o
    0x0800440c   0x0800440c   0x00000008   Code   RO         2255    i.UART_ReceiveData  hal_uart.o
    0x08004414   0x08004414   0x00000006   Code   RO         2258    i.UART_SendData     hal_uart.o
    0x0800441a   0x0800441a   0x00000002   PAD
    0x0800441c   0x0800441c   0x00000094   Code   RO         3345    i.Yijielvbo         angle.o
    0x080044b0   0x080044b0   0x0000001c   Code   RO         3027    i.__ARM_common_switch8  adc.o
    0x080044cc   0x080044cc   0x0000002c   Code   RO         4777    i.__ARM_fpclassify  m_ps.l(fpclassify.o)
    0x080044f8   0x080044f8   0x000000ac   Code   RO         4779    i.__kernel_poly     m_ps.l(poly.o)
    0x080045a4   0x080045a4   0x0000000a   Code   RO         4764    i.__mathlib_dbl_infnan  m_ps.l(dunder.o)
    0x080045ae   0x080045ae   0x00000008   Code   RO         4765    i.__mathlib_dbl_infnan2  m_ps.l(dunder.o)
    0x080045b6   0x080045b6   0x00000002   PAD
    0x080045b8   0x080045b8   0x00000014   Code   RO         4769    i.__mathlib_dbl_underflow  m_ps.l(dunder.o)
    0x080045cc   0x080045cc   0x00000034   Code   RO         2989    i.adc_init          adc.o
    0x08004600   0x08004600   0x00000020   Code   RO         3346    i.angle_hanlder     angle.o
    0x08004620   0x08004620   0x00000048   Code   RO         3785    i.angle_is_normal   balance.o
    0x08004668   0x08004668   0x0000021c   Code   RO         4641    i.atan              m_ps.l(atan.o)
    0x08004884   0x08004884   0x00000178   Code   RO         4651    i.atan2             m_ps.l(atan2.o)
    0x080049fc   0x080049fc   0x000000c0   Code   RO         3786    i.balance           balance.o
    0x08004abc   0x08004abc   0x00000010   Code   RO         3249    i.beep_OFF          gpio.o
    0x08004acc   0x08004acc   0x00000010   Code   RO         3250    i.beep_ON           gpio.o
    0x08004adc   0x08004adc   0x0000003a   Code   RO         3251    i.beep_briefly_on   gpio.o
    0x08004b16   0x08004b16   0x0000000c   Code   RO         4407    i.button_attach     multi_button.o
    0x08004b22   0x08004b22   0x0000024c   Code   RO         4408    i.button_handler    multi_button.o
    0x08004d6e   0x08004d6e   0x00000042   Code   RO         4409    i.button_init       multi_button.o
    0x08004db0   0x08004db0   0x0000002c   Code   RO         4410    i.button_start      multi_button.o
    0x08004ddc   0x08004ddc   0x0000001c   Code   RO         4412    i.button_ticks      multi_button.o
    0x08004df8   0x08004df8   0x00000068   Code   RO         3551    i.buzzerDriverInit  buzzerdriver.o
    0x08004e60   0x08004e60   0x00000044   Code   RO         3501    i.buzzerSetNewFrequency  buzzerdriver.o
    0x08004ea4   0x08004ea4   0x0000012c   Code   RO         3085    i.cacl_error_1      speedcontrol.o
    0x08004fd0   0x08004fd0   0x00000050   Code   RO         2529    i.delayms           sys.o
    0x08005020   0x08005020   0x00000014   Code   RO         3587    i.delayms_mpu9250   i2c_mpu9250.o
    0x08005034   0x08005034   0x000001bc   Code   RO         2610    i.encoder_init      encoder.o
    0x080051f0   0x080051f0   0x00000034   Code   RO         3042    i.error_processing  trace.o
    0x08005224   0x08005224   0x0000001c   Code   RO         3086    i.float_Abs         speedcontrol.o
    0x08005240   0x08005240   0x00000012   Code   RO         3400    i.iic_delay         softi2c.o
    0x08005252   0x08005252   0x00000002   PAD
    0x08005254   0x08005254   0x00000088   Code   RO         3930    i.judgeOandY        control_task.o
    0x080052dc   0x080052dc   0x0000002c   Code   RO         2676    i.lq_tft_delayms    lcd.o
    0x08005308   0x08005308   0x00000054   Code   RO            3    i.main              main.o
    0x0800535c   0x0800535c   0x00000080   Code   RO         2849    i.motor_run         motor.o
    0x080053dc   0x080053dc   0x00000058   Code   RO         3503    i.music2Play        buzzerdriver.o
    0x08005434   0x08005434   0x000000d8   Code   RO         3505    i.music4Play        buzzerdriver.o
    0x0800550c   0x0800550c   0x000000c8   Code   RO         3506    i.musicPlay         buzzerdriver.o
    0x080055d4   0x080055d4   0x00000088   Code   RO         4468    i.my_button_init    my_multi_button.o
    0x0800565c   0x0800565c   0x00000040   Code   RO         2530    i.mysys_init        sys.o
    0x0800569c   0x0800569c   0x00000018   Code   RO         2531    i.nvic_init         sys.o
    0x080056b4   0x080056b4   0x00000010   Code   RO         4469    i.read_button1_GPIO  my_multi_button.o
    0x080056c4   0x080056c4   0x00000010   Code   RO         4470    i.read_button2_GPIO  my_multi_button.o
    0x080056d4   0x080056d4   0x000000ac   Code   RO         3787    i.set_pwm           balance.o
    0x08005780   0x08005780   0x0000000e   Code   RO         3956    i.shellBackspace    shell.o
    0x0800578e   0x0800578e   0x00000002   PAD
    0x08005790   0x08005790   0x00000044   Code   RO         3957    i.shellCheckPassword  shell.o
    0x080057d4   0x080057d4   0x0000003e   Code   RO         3958    i.shellCheckPermission  shell.o
    0x08005812   0x08005812   0x00000002   PAD
    0x08005814   0x08005814   0x0000001c   Code   RO         3959    i.shellClear        shell.o
    0x08005830   0x08005830   0x00000028   Code   RO         3960    i.shellClearCommandLine  shell.o
    0x08005858   0x08005858   0x00000014   Code   RO         3961    i.shellCmds         shell.o
    0x0800586c   0x0800586c   0x00000010   Code   RO         3962    i.shellDelete       shell.o
    0x0800587c   0x0800587c   0x000000de   Code   RO         3963    i.shellDeleteByte   shell.o
    0x0800595a   0x0800595a   0x00000002   PAD
    0x0800595c   0x0800595c   0x00000020   Code   RO         3964    i.shellDeleteCommandLine  shell.o
    0x0800597c   0x0800597c   0x00000010   Code   RO         3965    i.shellDown         shell.o
    0x0800598c   0x0800598c   0x00000014   Code   RO         3966    i.shellEnter        shell.o
    0x080059a0   0x080059a0   0x0000007c   Code   RO         3967    i.shellExec         shell.o
    0x08005a1c   0x08005a1c   0x0000005a   Code   RO         4326    i.shellExtNumType   shell_ext.o
    0x08005a76   0x08005a76   0x00000046   Code   RO         4327    i.shellExtParseChar  shell_ext.o
    0x08005abc   0x08005abc   0x000000e6   Code   RO         4328    i.shellExtParseNumber  shell_ext.o
    0x08005ba2   0x08005ba2   0x0000005c   Code   RO         4329    i.shellExtParsePara  shell_ext.o
    0x08005bfe   0x08005bfe   0x0000004a   Code   RO         4330    i.shellExtParseString  shell_ext.o
    0x08005c48   0x08005c48   0x00000026   Code   RO         4331    i.shellExtParseVar  shell_ext.o
    0x08005c6e   0x08005c6e   0x000000ce   Code   RO         4332    i.shellExtRun       shell_ext.o
    0x08005d3c   0x08005d3c   0x00000036   Code   RO         4333    i.shellExtToNum     shell_ext.o
    0x08005d72   0x08005d72   0x00000030   Code   RO         3968    i.shellGetCommandDesc  shell.o
    0x08005da2   0x08005da2   0x00000002   PAD
    0x08005da4   0x08005da4   0x00000050   Code   RO         3969    i.shellGetCommandName  shell.o
    0x08005df4   0x08005df4   0x00000034   Code   RO         3970    i.shellGetCurrent   shell.o
    0x08005e28   0x08005e28   0x00000056   Code   RO         3971    i.shellGetVarValue  shell.o
    0x08005e7e   0x08005e7e   0x00000002   PAD
    0x08005e80   0x08005e80   0x00000088   Code   RO         3973    i.shellHelp         shell.o
    0x08005f08   0x08005f08   0x000000c0   Code   RO         3974    i.shellHistory      shell.o
    0x08005fc8   0x08005fc8   0x00000080   Code   RO         3975    i.shellHistoryAdd   shell.o
    0x08006048   0x08006048   0x00000014   Code   RO         3978    i.shellKeys         shell.o
    0x0800605c   0x0800605c   0x0000001a   Code   RO         3979    i.shellLeft         shell.o
    0x08006076   0x08006076   0x0000000c   Code   RO         3980    i.shellListAll      shell.o
    0x08006082   0x08006082   0x00000002   PAD
    0x08006084   0x08006084   0x0000004c   Code   RO         3981    i.shellListCommand  shell.o
    0x080060d0   0x080060d0   0x000000f8   Code   RO         3982    i.shellListItem     shell.o
    0x080061c8   0x080061c8   0x0000005c   Code   RO         3983    i.shellListKey      shell.o
    0x08006224   0x08006224   0x0000005c   Code   RO         3984    i.shellListUser     shell.o
    0x08006280   0x08006280   0x0000005c   Code   RO         3985    i.shellListVar      shell.o
    0x080062dc   0x080062dc   0x00000096   Code   RO         3987    i.shellParserParam  shell.o
    0x08006372   0x08006372   0x00000068   Code   RO         3989    i.shellRemoveParamQuotes  shell.o
    0x080063da   0x080063da   0x0000001e   Code   RO         3990    i.shellRight        shell.o
    0x080063f8   0x080063f8   0x000000b4   Code   RO         3992    i.shellRunCommand   shell.o
    0x080064ac   0x080064ac   0x00000082   Code   RO         3993    i.shellSeekCommand  shell.o
    0x0800652e   0x0800652e   0x00000002   PAD
    0x08006530   0x08006530   0x00000068   Code   RO         3994    i.shellSetUser      shell.o
    0x08006598   0x08006598   0x0000006c   Code   RO         3995    i.shellSetVar       shell.o
    0x08006604   0x08006604   0x00000098   Code   RO         3996    i.shellSetVarValue  shell.o
    0x0800669c   0x0800669c   0x000000c4   Code   RO         3997    i.shellShowVar      shell.o
    0x08006760   0x08006760   0x0000002e   Code   RO         3998    i.shellStringCompare  shell.o
    0x0800678e   0x0800678e   0x00000018   Code   RO         3999    i.shellStringCopy   shell.o
    0x080067a6   0x080067a6   0x00000002   PAD
    0x080067a8   0x080067a8   0x00000124   Code   RO         4000    i.shellTab          shell.o
    0x080068cc   0x080068cc   0x0000005a   Code   RO         4002    i.shellToDec        shell.o
    0x08006926   0x08006926   0x00000038   Code   RO         4003    i.shellToHex        shell.o
    0x0800695e   0x0800695e   0x0000000e   Code   RO         4004    i.shellUp           shell.o
    0x0800696c   0x0800696c   0x00000014   Code   RO         4005    i.shellUsers        shell.o
    0x08006980   0x08006980   0x00000014   Code   RO         4006    i.shellVars         shell.o
    0x08006994   0x08006994   0x0000000e   Code   RO         4007    i.shellWriteByte    shell.o
    0x080069a2   0x080069a2   0x00000054   Code   RO         4008    i.shellWriteCommandDesc  shell.o
    0x080069f6   0x080069f6   0x00000002   PAD
    0x080069f8   0x080069f8   0x00000070   Code   RO         4009    i.shellWriteCommandLine  shell.o
    0x08006a68   0x08006a68   0x00000088   Code   RO         4010    i.shellWriteReturnValue  shell.o
    0x08006af0   0x08006af0   0x00000028   Code   RO         4011    i.shellWriteString  shell.o
    0x08006b18   0x08006b18   0x00000048   Code   RO         4659    i.sqrt              m_ps.l(sqrt.o)
    0x08006b60   0x08006b60   0x0000000e   Code   RO         2677    i.tft18delay_1us    lcd.o
    0x08006b6e   0x08006b6e   0x00000002   PAD
    0x08006b70   0x08006b70   0x00000070   Code   RO         3788    i.turn              balance.o
    0x08006be0   0x08006be0   0x0000012c   Code   RO         3789    i.velocity          balance.o
    0x08006d0c   0x08006d0c   0x00000064   Code   RO         4609    x$fpl$dleqf         fz_ps.l(dlef.o)
    0x08006d70   0x08006d70   0x00000068   Code   RO         4613    x$fpl$drleqf        fz_ps.l(drlef.o)
    0x08006dd8   0x08006dd8   0x0000008c   Code   RO         4617    x$fpl$fadd          fz_ps.l(faddsub.o)
    0x08006e64   0x08006e64   0x00000054   Code   RO         4632    x$fpl$fleqf         fz_ps.l(flef.o)
    0x08006eb8   0x08006eb8   0x000000b0   Code   RO         4634    x$fpl$fmul          fz_ps.l(fmul.o)
    0x08006f68   0x08006f68   0x00000058   Code   RO         4636    x$fpl$frleqf        fz_ps.l(frlef.o)
    0x08006fc0   0x08006fc0   0x000000d0   Code   RO         4619    x$fpl$fsub          fz_ps.l(faddsub.o)
    0x08007090   0x08007090   0x00000000   Code   RO         4762    x$fpl$usenofp       fz_ps.l(usenofp.o)
    0x08007090   0x08007090   0x0000001c   Data   RO         2901    .constdata          timer.o
    0x080070ac   0x080070ac   0x0000000e   Data   RO         3348    .constdata          angle.o
    0x080070ba   0x080070ba   0x00000002   PAD
    0x080070bc   0x080070bc   0x00001408   Data   RO         3507    .constdata          buzzerdriver.o
    0x080084c4   0x080084c4   0x000000e3   Data   RO         4013    .constdata          shell.o
    0x080085a7   0x080085a7   0x00000080   Data   RO         4603    .constdata          fz_ps.l(ddiv.o)
    0x08008627   0x08008627   0x00000040   Data   RO         4624    .constdata          fz_ps.l(fdiv.o)
    0x08008667   0x08008667   0x00000001   PAD
    0x08008668   0x08008668   0x00000098   Data   RO         4642    .constdata          m_ps.l(atan.o)
    0x08008700   0x08008700   0x00000008   Data   RO         4781    .constdata          m_ps.l(qnan.o)
    0x08008708   0x08008708   0x000002a5   Data   RO         4014    .conststring        shell.o
    0x080089ad   0x080089ad   0x00000003   PAD
    0x080089b0   0x080089b0   0x00000020   Data   RO         4992    Region$$Table       anon$$obj.o
    0x080089d0   0x080089d0   0x00000010   Data   RO         3350    shellCommand        angle.o
    0x080089e0   0x080089e0   0x00000010   Data   RO         3509    shellCommand        buzzerdriver.o
    0x080089f0   0x080089f0   0x00000120   Data   RO         4016    shellCommand        shell.o


    Execution Region RW_IRAM1 (Exec base: 0x20000000, Load base: 0x08008b10, Size: 0x000009d8, Max: 0x00003000, ABSOLUTE, COMPRESSED[0x000000e0])

    Exec Addr    Load Addr    Size         Type   Attr      Idx    E Section Name        Object

    0x20000000   COMPRESSED   0x00000010   Data   RW         1320    .data               hal_rcc.o
    0x20000010   COMPRESSED   0x00000014   Data   RW         2487    .data               system_mm32spin2xx_p.o
    0x20000024   COMPRESSED   0x00000010   Data   RW         2532    .data               sys.o
    0x20000034   COMPRESSED   0x00000034   Data   RW         2902    .data               timer.o
    0x20000068   COMPRESSED   0x00000020   Data   RW         2990    .data               adc.o
    0x20000088   COMPRESSED   0x000000b0   Data   RW         3092    .data               speedcontrol.o
    0x20000138   COMPRESSED   0x00000004   Data   RW         3258    .data               gpio.o
    0x2000013c   COMPRESSED   0x0000001c   Data   RW         3349    .data               angle.o
    0x20000158   COMPRESSED   0x00000004   Data   RW         3401    .data               softi2c.o
    0x2000015c   COMPRESSED   0x0000006b   Data   RW         3508    .data               buzzerdriver.o
    0x200001c7   COMPRESSED   0x00000009   Data   RW         3709    .data               data_transfer.o
    0x200001d0   COMPRESSED   0x0000004c   Data   RW         3790    .data               balance.o
    0x2000021c   COMPRESSED   0x0000000c   Data   RW         3931    .data               control_task.o
    0x20000228   COMPRESSED   0x00000054   Data   RW         4015    .data               shell.o
    0x2000027c   COMPRESSED   0x00000001   Data   RW         4379    .data               shell_port.o
    0x2000027d   COMPRESSED   0x00000003   PAD
    0x20000280   COMPRESSED   0x00000004   Data   RW         4414    .data               multi_button.o
    0x20000284   COMPRESSED   0x00000001   Data   RW         4472    .data               my_multi_button.o
    0x20000285   COMPRESSED   0x00000003   PAD
    0x20000288        -       0x0000000e   Zero   RW         3347    .bss                angle.o
    0x20000296        -       0x00000070   Zero   RW         3708    .bss                data_transfer.o
    0x20000306   COMPRESSED   0x00000002   PAD
    0x20000308        -       0x0000001d   Zero   RW         4012    .bss                shell.o
    0x20000325   COMPRESSED   0x00000003   PAD
    0x20000328        -       0x00000050   Zero   RW         4471    .bss                my_multi_button.o
    0x20000378        -       0x00000060   Zero   RW         4843    .bss                c_p.l(libspace.o)
    0x200003d8        -       0x00000200   Zero   RW         2475    HEAP                startup_mm32spin2xx_p.o
    0x200005d8        -       0x00000400   Zero   RW         2474    STACK               startup_mm32spin2xx_p.o


==============================================================================

Image component sizes


      Code (inc. data)   RO Data    RW Data    ZI Data      Debug   Object Name

       320         26          0         32          0       2317   adc.o
       428         74         30         28         14       3190   angle.o
       848        142          0         76          0       3880   balance.o
       282         22          0          0          0       2692   bluetooth.o
       676        120       5144        107          0       7287   buzzerdriver.o
       136         30          0         12          0        894   control_task.o
      3040        176          0          9        112       9699   data_transfer.o
       444         12          0          0          0        651   encoder.o
       370         46          0          4          0       4017   gpio.o
       172          8          0          0          0     112995   hal_adc.o
       320          0          0          0          0       9051   hal_gpio.o
       148         10          0          0          0       2286   hal_misc.o
       348         38          0         16          0       4738   hal_rcc.o
      1014        174          0          0          0      29334   hal_tim.o
       210         10          0          0          0       8644   hal_uart.o
       514          0          0          0          0       5688   i2c_mpu9250.o
       976         20          0          0          0       4721   lcd.o
        84          0          0          0          0     140851   main.o
       560         40          0          0          0       1966   motor.o
       738         20          0          4          0       4373   multi_button.o
       444        114          0          1         80       5193   my_multi_button.o
      4144        196       1192         84         29      39265   shell.o
       854         10          0          0          0       6206   shell_ext.o
         0          0          0          1          0        754   shell_port.o
       996         68          0          4          0       8167   softi2c.o
       342         36          0        176          0       5400   speedcontrol.o
       144         64        180          0       1536        836   startup_mm32spin2xx_p.o
       456         62          0         16          0     103347   sys.o
       518         40          0         20          0       3088   system_mm32spin2xx_p.o
      1248        150         28         52          0      99227   timer.o
        52         22          0          0          0        527   trace.o

    ----------------------------------------------------------------------
     20864       1730       6611        648       1776     631284   Object Totals
         0          0         32          0          0          0   (incl. Generated)
        38          0          5          6          5          0   (incl. Padding)

    ----------------------------------------------------------------------

      Code (inc. data)   RO Data    RW Data    ZI Data      Debug   Library Member Name

        86          0          0          0          0          0   __dczerorl2.o
         8          0          0          0          0         68   __main.o
         0          0          0          0          0          0   __rtentry.o
        12          0          0          0          0          0   __rtentry2.o
         6          0          0          0          0          0   __rtentry4.o
        60          8          0          0          0          0   __scatter.o
        28          0          0          0          0          0   __scatter_zi.o
        22          0          0          0          0         92   _rserrno.o
       346          0          0          0          0         92   aeabi_sdiv.o
        16          0          0          0          0         68   exit.o
         6          0          0          0          0        136   heapauxi.o
         0          0          0          0          0          0   indicate_semi.o
         2          0          0          0          0          0   libinit.o
         2          0          0          0          0          0   libinit2.o
         2          0          0          0          0          0   libshutdown.o
         2          0          0          0          0          0   libshutdown2.o
         8          4          0          0         96         68   libspace.o
       258          0          0          0          0         88   lludiv.o
         8          4          0          0          0         68   rt_errno_addr_intlibspace.o
        64          0          0          0          0        108   rt_memclr.o
         2          0          0          0          0          0   rtexit.o
        10          0          0          0          0          0   rtexit2.o
       136          4          0          0          0         72   strcmp.o
        68          6          0          0          0         72   strlen.o
       160          6          0          0          0         76   strncmp.o
        12          4          0          0          0         60   sys_exit.o
        62          0          0          0          0         80   sys_stackheap_outer.o
         2          0          0          0          0         68   use_no_semi.o
        46          0          0          0          0         60   cmpret.o
       124          4          0          0          0         72   d2f.o
       856         20          0          0          0        208   daddsub.o
       144          4          0          0          0         76   dcmpin.o
      1096         26        128          0          0        112   ddiv.o
       108         10          0          0          0         72   dfixi.o
        88          0          0          0          0         92   dflti.o
       100          4          0          0          0         92   dlef.o
       584         26          0          0          0         84   dmul.o
        20          6          0          0          0         68   dnan2.o
       104          4          0          0          0        104   drlef.o
        96         12          0          0          0         72   dscalbn.o
       256          8          0          0          0         76   dsqrt.o
        84          4          0          0          0         60   f2d.o
       348          8          0          0          0        160   faddsub.o
       100          4          0          0          0         68   fcmpin.o
       352         10         64          0          0         92   fdiv.o
        76          0          0          0          0         68   ffixi.o
        94          0          0          0          0         92   fflti.o
        84          4          0          0          0         76   flef.o
       176          4          0          0          0         80   fmul.o
        16          6          0          0          0         68   fnan2.o
        88          4          0          0          0         76   frlef.o
        94          0          0          0          0         68   retnan.o
         0          0          0          0          0          0   usenofp.o
       540         68        152          0          0        112   atan.o
       376         42          0          0          0        144   atan2.o
        38          6          0          0          0        204   dunder.o
        44          4          0          0          0         60   fpclassify.o
       172          0          0          0          0         76   poly.o
         0          0          8          0          0          0   qnan.o
        72          6          0          0          0         76   sqrt.o

    ----------------------------------------------------------------------
      7772        330        353          0         96       3984   Library Totals
         8          0          1          0          0          0   (incl. Padding)

    ----------------------------------------------------------------------

      Code (inc. data)   RO Data    RW Data    ZI Data      Debug   Library Name

      1388         36          0          0         96       1216   c_p.l
      5134        168        192          0          0       2096   fz_ps.l
      1242        126        160          0          0        672   m_ps.l

    ----------------------------------------------------------------------
      7772        330        353          0         96       3984   Library Totals

    ----------------------------------------------------------------------

==============================================================================


      Code (inc. data)   RO Data    RW Data    ZI Data      Debug   

     28636       2060       6964        648       1872     624460   Grand Totals
     28636       2060       6964        224       1872     624460   ELF Image Totals (compressed)
     28636       2060       6964        224          0          0   ROM Totals

==============================================================================

    Total RO  Size (Code + RO Data)                35600 (  34.77kB)
    Total RW  Size (RW Data + ZI Data)              2520 (   2.46kB)
    Total ROM Size (Code + RO Data + RW Data)      35824 (  34.98kB)

==============================================================================

